(lp0
(iState
State
p1
(dp2
S'index'
p3
I0
sS'possibleActions'
p4
(lp5
(iAction
Action
p6
(dp7
g3
I0
sS'name'
p8
S'Inspect'
p9
sba(iAction
Action
p10
(dp11
g3
I1
sg8
S'Next'
p12
sba(iAction
Action
p13
(dp14
g3
I2
sg8
S'Previous'
p15
sbasS'transition'
p16
(lp17
(I0
I0
I1
tp18
a(I1
I0
I1
tp19
a(I2
I0
I1
tp20
asS'dold'
p21
NsS'dvals'
p22
NsS'time'
p23
NsS'reward'
p24
(lp25
(I0
F0.0
tp26
a(I1
F0.0
tp27
a(I2
F0.0
tp28
asS'location'
p29
Nsba(iState
State
p30
(dp31
g3
I1
sg4
g5
sg16
(lp32
(I0
I0
I1
tp33
a(I1
I0
I1
tp34
a(I2
I0
I1
tp35
asg21
I0
sg22
(I0
I0
I0
I0
I0
tp36
sg23
I0
sg24
(lp37
(I0
F0.0
tp38
a(I1
F0.0
tp39
a(I2
F0.0
tp40
asg29
I0
sba(iState
State
p41
(dp42
g3
I2
sg4
g5
sg16
(lp43
(I0
I0
I1
tp44
a(I1
I0
I1
tp45
a(I2
I0
I1
tp46
asg21
I0
sg22
(I1
I0
I0
I0
I0
tp47
sg23
I0
sg24
(lp48
(I0
I15
tp49
a(I1
I15
tp50
a(I2
I15
tp51
asg29
I0
sba(iState
State
p52
(dp53
g3
I3
sg4
g5
sg16
(lp54
(I0
I0
I1
tp55
a(I1
I0
I1
tp56
a(I2
I0
I1
tp57
asg21
I1
sg22
g47
sg23
I0
sg24
(lp58
(I0
F0.0
tp59
a(I1
F0.0
tp60
a(I2
F0.0
tp61
asg29
I0
sba(iState
State
p62
(dp63
g3
I4
sg4
g5
sg16
(lp64
(I0
I0
I1
tp65
a(I1
I0
I1
tp66
a(I2
I0
I1
tp67
asg21
I0
sg22
g36
sg23
I0
sg24
(lp68
(I0
F0.0
tp69
a(I1
F0.0
tp70
a(I2
F0.0
tp71
asg29
I1
sba(iState
State
p72
(dp73
g3
I5
sg4
g5
sg16
(lp74
(I0
I0
I1
tp75
a(I1
I0
I1
tp76
a(I2
I0
I1
tp77
asg21
I0
sg22
(I0
I1
I0
I0
I0
tp78
sg23
I0
sg24
(lp79
(I0
I13
tp80
a(I1
I13
tp81
a(I2
I13
tp82
asg29
I1
sba(iState
State
p83
(dp84
g3
I6
sg4
g5
sg16
(lp85
(I0
I0
I1
tp86
a(I1
I0
I1
tp87
a(I2
I0
I1
tp88
asg21
I1
sg22
g78
sg23
I0
sg24
(lp89
(I0
F0.0
tp90
a(I1
F0.0
tp91
a(I2
F0.0
tp92
asg29
I1
sba(iState
State
p93
(dp94
g3
I7
sg4
g5
sg16
(lp95
(I0
I0
I1
tp96
a(I1
I0
I1
tp97
a(I2
I0
I1
tp98
asg21
I0
sg22
g36
sg23
I0
sg24
(lp99
(I0
F0.0
tp100
a(I1
F0.0
tp101
a(I2
F0.0
tp102
asg29
I2
sba(iState
State
p103
(dp104
g3
I8
sg4
g5
sg16
(lp105
(I0
I0
I1
tp106
a(I1
I0
I1
tp107
a(I2
I0
I1
tp108
asg21
I0
sg22
(I0
I0
I1
I0
I0
tp109
sg23
I0
sg24
(lp110
(I0
I5
tp111
a(I1
I5
tp112
a(I2
I5
tp113
asg29
I2
sba(iState
State
p114
(dp115
g3
I9
sg4
g5
sg16
(lp116
(I0
I0
I1
tp117
a(I1
I0
I1
tp118
a(I2
I0
I1
tp119
asg21
I1
sg22
g109
sg23
I0
sg24
(lp120
(I0
F0.0
tp121
a(I1
F0.0
tp122
a(I2
F0.0
tp123
asg29
I2
sba(iState
State
p124
(dp125
g3
I10
sg4
g5
sg16
(lp126
(I0
I0
I1
tp127
a(I1
I0
I1
tp128
a(I2
I0
I1
tp129
asg21
I0
sg22
g36
sg23
I0
sg24
(lp130
(I0
F0.0
tp131
a(I1
F0.0
tp132
a(I2
F0.0
tp133
asg29
I3
sba(iState
State
p134
(dp135
g3
I11
sg4
g5
sg16
(lp136
(I0
I0
I1
tp137
a(I1
I0
I1
tp138
a(I2
I0
I1
tp139
asg21
I0
sg22
(I0
I0
I0
I1
I0
tp140
sg23
I0
sg24
(lp141
(I0
I11
tp142
a(I1
I11
tp143
a(I2
I11
tp144
asg29
I3
sba(iState
State
p145
(dp146
g3
I12
sg4
g5
sg16
(lp147
(I0
I0
I1
tp148
a(I1
I0
I1
tp149
a(I2
I0
I1
tp150
asg21
I1
sg22
g140
sg23
I0
sg24
(lp151
(I0
F0.0
tp152
a(I1
F0.0
tp153
a(I2
F0.0
tp154
asg29
I3
sba(iState
State
p155
(dp156
g3
I13
sg4
g5
sg16
(lp157
(I0
I0
I1
tp158
a(I1
I0
I1
tp159
a(I2
I0
I1
tp160
asg21
I0
sg22
g36
sg23
I0
sg24
(lp161
(I0
F0.0
tp162
a(I1
F0.0
tp163
a(I2
F0.0
tp164
asg29
I4
sba(iState
State
p165
(dp166
g3
I14
sg4
g5
sg16
(lp167
(I0
I0
I1
tp168
a(I1
I0
I1
tp169
a(I2
I0
I1
tp170
asg21
I0
sg22
(I0
I0
I0
I0
I1
tp171
sg23
I0
sg24
(lp172
(I0
I18
tp173
a(I1
I18
tp174
a(I2
I18
tp175
asg29
I4
sba(iState
State
p176
(dp177
g3
I15
sg4
g5
sg16
(lp178
(I0
I0
I1
tp179
a(I1
I0
I1
tp180
a(I2
I0
I1
tp181
asg21
I1
sg22
g171
sg23
I0
sg24
(lp182
(I0
F0.0
tp183
a(I1
F0.0
tp184
a(I2
F0.0
tp185
asg29
I4
sba(iState
State
p186
(dp187
g3
I16
sg4
g5
sg16
(lp188
(I0
I1
F0.050000000000000044
tp189
a(I0
I2
F0.95
tp190
a(I1
I1
F0.050000000000000044
tp191
a(I1
I4
F0.95
tp192
a(I2
I1
F1.0
tp193
asg21
I0
sg22
g36
sg23
I8
sg24
(lp194
(I0
F0.0
tp195
a(I1
F0.0
tp196
a(I2
F0.0
tp197
asg29
I0
sba(iState
State
p198
(dp199
g3
I17
sg4
g5
sg16
(lp200
(I0
I1
F0.050000000000000044
tp201
a(I0
I2
F0.95
tp202
a(I1
I1
F0.050000000000000044
tp203
a(I1
I4
F0.95
tp204
a(I2
I1
F1.0
tp205
asg21
I0
sg22
g140
sg23
I8
sg24
(lp206
(I0
F0.0
tp207
a(I1
F0.0
tp208
a(I2
F0.0
tp209
asg29
I0
sba(iState
State
p210
(dp211
g3
I18
sg4
g5
sg16
(lp212
(I0
I1
F0.050000000000000044
tp213
a(I0
I2
F0.95
tp214
a(I1
I1
F0.050000000000000044
tp215
a(I1
I4
F0.95
tp216
a(I2
I1
F1.0
tp217
asg21
I0
sg22
g109
sg23
I8
sg24
(lp218
(I0
F0.0
tp219
a(I1
F0.0
tp220
a(I2
F0.0
tp221
asg29
I0
sba(iState
State
p222
(dp223
g3
I19
sg4
g5
sg16
(lp224
(I0
I1
F0.050000000000000044
tp225
a(I0
I2
F0.95
tp226
a(I1
I1
F0.050000000000000044
tp227
a(I1
I4
F0.95
tp228
a(I2
I1
F1.0
tp229
asg21
I0
sg22
g78
sg23
I8
sg24
(lp230
(I0
F0.0
tp231
a(I1
F0.0
tp232
a(I2
F0.0
tp233
asg29
I0
sba(iState
State
p234
(dp235
g3
I20
sg4
g5
sg16
(lp236
(I0
I1
F0.050000000000000044
tp237
a(I0
I2
F0.95
tp238
a(I1
I1
F0.050000000000000044
tp239
a(I1
I4
F0.95
tp240
a(I2
I1
F1.0
tp241
asg21
I0
sg22
(I0
I1
I1
I0
I0
tp242
sg23
I8
sg24
(lp243
(I0
F0.0
tp244
a(I1
F0.0
tp245
a(I2
F0.0
tp246
asg29
I0
sba(iState
State
p247
(dp248
g3
I21
sg4
g5
sg16
(lp249
(I0
I3
I1
tp250
a(I1
I1
F0.050000000000000044
tp251
a(I1
I4
F0.95
tp252
a(I2
I1
F1.0
tp253
asg21
I0
sg22
g47
sg23
I8
sg24
(lp254
(I0
I15
tp255
a(I1
I15
tp256
a(I2
I15
tp257
asg29
I0
sba(iState
State
p258
(dp259
g3
I22
sg4
g5
sg16
(lp260
(I0
I3
I1
tp261
a(I1
I1
F0.050000000000000044
tp262
a(I1
I4
F0.95
tp263
a(I2
I1
F1.0
tp264
asg21
I1
sg22
g47
sg23
I8
sg24
(lp265
(I0
F0.0
tp266
a(I1
F0.0
tp267
a(I2
F0.0
tp268
asg29
I0
sba(iState
State
p269
(dp270
g3
I23
sg4
g5
sg16
(lp271
(I0
I3
I1
tp272
a(I1
I1
F0.050000000000000044
tp273
a(I1
I4
F0.95
tp274
a(I2
I1
F1.0
tp275
asg21
I0
sg22
(I1
I0
I1
I0
I0
tp276
sg23
I8
sg24
(lp277
(I0
I15
tp278
a(I1
I15
tp279
a(I2
I15
tp280
asg29
I0
sba(iState
State
p281
(dp282
g3
I24
sg4
g5
sg16
(lp283
(I0
I3
I1
tp284
a(I1
I1
F0.050000000000000044
tp285
a(I1
I4
F0.95
tp286
a(I2
I1
F1.0
tp287
asg21
I0
sg22
(I1
I1
I0
I0
I0
tp288
sg23
I8
sg24
(lp289
(I0
I15
tp290
a(I1
I15
tp291
a(I2
I15
tp292
asg29
I0
sba(iState
State
p293
(dp294
g3
I25
sg4
g5
sg16
(lp295
(I0
I3
I1
tp296
a(I1
I1
F0.050000000000000044
tp297
a(I1
I4
F0.95
tp298
a(I2
I1
F1.0
tp299
asg21
I1
sg22
g288
sg23
I8
sg24
(lp300
(I0
F0.0
tp301
a(I1
F0.0
tp302
a(I2
F0.0
tp303
asg29
I0
sba(iState
State
p304
(dp305
g3
I26
sg4
g5
sg16
(lp306
(I0
I4
F0.050000000000000044
tp307
a(I0
I5
F0.95
tp308
a(I1
I4
F0.050000000000000044
tp309
a(I1
I7
F0.95
tp310
a(I2
I1
F0.95
tp311
a(I2
I4
F0.050000000000000044
tp312
asg21
I0
sg22
g36
sg23
I8
sg24
(lp313
(I0
F0.0
tp314
a(I1
F0.0
tp315
a(I2
F0.0
tp316
asg29
I1
sba(iState
State
p317
(dp318
g3
I27
sg4
g5
sg16
(lp319
(I0
I4
F0.050000000000000044
tp320
a(I0
I5
F0.95
tp321
a(I1
I4
F0.050000000000000044
tp322
a(I1
I7
F0.95
tp323
a(I2
I1
F0.95
tp324
a(I2
I4
F0.050000000000000044
tp325
asg21
I0
sg22
g171
sg23
I8
sg24
(lp326
(I0
F0.0
tp327
a(I1
F0.0
tp328
a(I2
F0.0
tp329
asg29
I1
sba(iState
State
p330
(dp331
g3
I28
sg4
g5
sg16
(lp332
(I0
I4
F0.050000000000000044
tp333
a(I0
I5
F0.95
tp334
a(I1
I4
F0.050000000000000044
tp335
a(I1
I7
F0.95
tp336
a(I2
I1
F0.95
tp337
a(I2
I4
F0.050000000000000044
tp338
asg21
I0
sg22
g140
sg23
I8
sg24
(lp339
(I0
F0.0
tp340
a(I1
F0.0
tp341
a(I2
F0.0
tp342
asg29
I1
sba(iState
State
p343
(dp344
g3
I29
sg4
g5
sg16
(lp345
(I0
I4
F0.050000000000000044
tp346
a(I0
I5
F0.95
tp347
a(I1
I4
F0.050000000000000044
tp348
a(I1
I7
F0.95
tp349
a(I2
I1
F0.95
tp350
a(I2
I4
F0.050000000000000044
tp351
asg21
I0
sg22
g109
sg23
I8
sg24
(lp352
(I0
F0.0
tp353
a(I1
F0.0
tp354
a(I2
F0.0
tp355
asg29
I1
sba(iState
State
p356
(dp357
g3
I30
sg4
g5
sg16
(lp358
(I0
I4
F0.050000000000000044
tp359
a(I0
I5
F0.95
tp360
a(I1
I4
F0.050000000000000044
tp361
a(I1
I7
F0.95
tp362
a(I2
I1
F0.95
tp363
a(I2
I4
F0.050000000000000044
tp364
asg21
I0
sg22
(I0
I0
I1
I1
I0
tp365
sg23
I8
sg24
(lp366
(I0
F0.0
tp367
a(I1
F0.0
tp368
a(I2
F0.0
tp369
asg29
I1
sba(iState
State
p370
(dp371
g3
I31
sg4
g5
sg16
(lp372
(I0
I6
I1
tp373
a(I1
I4
F0.050000000000000044
tp374
a(I1
I7
F0.95
tp375
a(I2
I1
F0.95
tp376
a(I2
I4
F0.050000000000000044
tp377
asg21
I0
sg22
g78
sg23
I8
sg24
(lp378
(I0
I13
tp379
a(I1
I13
tp380
a(I2
I13
tp381
asg29
I1
sba(iState
State
p382
(dp383
g3
I32
sg4
g5
sg16
(lp384
(I0
I6
I1
tp385
a(I1
I4
F0.050000000000000044
tp386
a(I1
I7
F0.95
tp387
a(I2
I1
F0.95
tp388
a(I2
I4
F0.050000000000000044
tp389
asg21
I1
sg22
g78
sg23
I8
sg24
(lp390
(I0
F0.0
tp391
a(I1
F0.0
tp392
a(I2
F0.0
tp393
asg29
I1
sba(iState
State
p394
(dp395
g3
I33
sg4
g5
sg16
(lp396
(I0
I6
I1
tp397
a(I1
I4
F0.050000000000000044
tp398
a(I1
I7
F0.95
tp399
a(I2
I1
F0.95
tp400
a(I2
I4
F0.050000000000000044
tp401
asg21
I0
sg22
(I0
I1
I0
I1
I0
tp402
sg23
I8
sg24
(lp403
(I0
I13
tp404
a(I1
I13
tp405
a(I2
I13
tp406
asg29
I1
sba(iState
State
p407
(dp408
g3
I34
sg4
g5
sg16
(lp409
(I0
I6
I1
tp410
a(I1
I4
F0.050000000000000044
tp411
a(I1
I7
F0.95
tp412
a(I2
I1
F0.95
tp413
a(I2
I4
F0.050000000000000044
tp414
asg21
I0
sg22
g242
sg23
I8
sg24
(lp415
(I0
I13
tp416
a(I1
I13
tp417
a(I2
I13
tp418
asg29
I1
sba(iState
State
p419
(dp420
g3
I35
sg4
g5
sg16
(lp421
(I0
I6
I1
tp422
a(I1
I4
F0.050000000000000044
tp423
a(I1
I7
F0.95
tp424
a(I2
I1
F0.95
tp425
a(I2
I4
F0.050000000000000044
tp426
asg21
I1
sg22
g242
sg23
I8
sg24
(lp427
(I0
F0.0
tp428
a(I1
F0.0
tp429
a(I2
F0.0
tp430
asg29
I1
sba(iState
State
p431
(dp432
g3
I36
sg4
g5
sg16
(lp433
(I0
I4
F0.050000000000000044
tp434
a(I0
I5
F0.95
tp435
a(I1
I4
F0.050000000000000044
tp436
a(I1
I7
F0.95
tp437
a(I2
I1
F0.95
tp438
a(I2
I4
F0.050000000000000044
tp439
asg21
I0
sg22
g47
sg23
I8
sg24
(lp440
(I0
F0.0
tp441
a(I1
F0.0
tp442
a(I2
F0.0
tp443
asg29
I1
sba(iState
State
p444
(dp445
g3
I37
sg4
g5
sg16
(lp446
(I0
I6
I1
tp447
a(I1
I4
F0.050000000000000044
tp448
a(I1
I7
F0.95
tp449
a(I2
I1
F0.95
tp450
a(I2
I4
F0.050000000000000044
tp451
asg21
I0
sg22
g288
sg23
I8
sg24
(lp452
(I0
I13
tp453
a(I1
I13
tp454
a(I2
I13
tp455
asg29
I1
sba(iState
State
p456
(dp457
g3
I38
sg4
g5
sg16
(lp458
(I0
I6
I1
tp459
a(I1
I4
F0.050000000000000044
tp460
a(I1
I7
F0.95
tp461
a(I2
I1
F0.95
tp462
a(I2
I4
F0.050000000000000044
tp463
asg21
I1
sg22
g288
sg23
I8
sg24
(lp464
(I0
F0.0
tp465
a(I1
F0.0
tp466
a(I2
F0.0
tp467
asg29
I1
sba(iState
State
p468
(dp469
g3
I39
sg4
g5
sg16
(lp470
(I0
I7
F0.050000000000000044
tp471
a(I0
I8
F0.95
tp472
a(I1
I7
F0.050000000000000044
tp473
a(I1
I10
F0.95
tp474
a(I2
I4
F0.95
tp475
a(I2
I7
F0.050000000000000044
tp476
asg21
I0
sg22
g36
sg23
I8
sg24
(lp477
(I0
F0.0
tp478
a(I1
F0.0
tp479
a(I2
F0.0
tp480
asg29
I2
sba(iState
State
p481
(dp482
g3
I40
sg4
g5
sg16
(lp483
(I0
I7
F0.050000000000000044
tp484
a(I0
I8
F0.95
tp485
a(I1
I7
F0.050000000000000044
tp486
a(I1
I10
F0.95
tp487
a(I2
I4
F0.95
tp488
a(I2
I7
F0.050000000000000044
tp489
asg21
I0
sg22
g171
sg23
I8
sg24
(lp490
(I0
F0.0
tp491
a(I1
F0.0
tp492
a(I2
F0.0
tp493
asg29
I2
sba(iState
State
p494
(dp495
g3
I41
sg4
g5
sg16
(lp496
(I0
I7
F0.050000000000000044
tp497
a(I0
I8
F0.95
tp498
a(I1
I7
F0.050000000000000044
tp499
a(I1
I10
F0.95
tp500
a(I2
I4
F0.95
tp501
a(I2
I7
F0.050000000000000044
tp502
asg21
I0
sg22
g140
sg23
I8
sg24
(lp503
(I0
F0.0
tp504
a(I1
F0.0
tp505
a(I2
F0.0
tp506
asg29
I2
sba(iState
State
p507
(dp508
g3
I42
sg4
g5
sg16
(lp509
(I0
I7
F0.050000000000000044
tp510
a(I0
I8
F0.95
tp511
a(I1
I7
F0.050000000000000044
tp512
a(I1
I10
F0.95
tp513
a(I2
I4
F0.95
tp514
a(I2
I7
F0.050000000000000044
tp515
asg21
I0
sg22
(I0
I0
I0
I1
I1
tp516
sg23
I8
sg24
(lp517
(I0
F0.0
tp518
a(I1
F0.0
tp519
a(I2
F0.0
tp520
asg29
I2
sba(iState
State
p521
(dp522
g3
I43
sg4
g5
sg16
(lp523
(I0
I9
I1
tp524
a(I1
I7
F0.050000000000000044
tp525
a(I1
I10
F0.95
tp526
a(I2
I4
F0.95
tp527
a(I2
I7
F0.050000000000000044
tp528
asg21
I0
sg22
g109
sg23
I8
sg24
(lp529
(I0
I5
tp530
a(I1
I5
tp531
a(I2
I5
tp532
asg29
I2
sba(iState
State
p533
(dp534
g3
I44
sg4
g5
sg16
(lp535
(I0
I9
I1
tp536
a(I1
I7
F0.050000000000000044
tp537
a(I1
I10
F0.95
tp538
a(I2
I4
F0.95
tp539
a(I2
I7
F0.050000000000000044
tp540
asg21
I1
sg22
g109
sg23
I8
sg24
(lp541
(I0
F0.0
tp542
a(I1
F0.0
tp543
a(I2
F0.0
tp544
asg29
I2
sba(iState
State
p545
(dp546
g3
I45
sg4
g5
sg16
(lp547
(I0
I9
I1
tp548
a(I1
I7
F0.050000000000000044
tp549
a(I1
I10
F0.95
tp550
a(I2
I4
F0.95
tp551
a(I2
I7
F0.050000000000000044
tp552
asg21
I0
sg22
(I0
I0
I1
I0
I1
tp553
sg23
I8
sg24
(lp554
(I0
I5
tp555
a(I1
I5
tp556
a(I2
I5
tp557
asg29
I2
sba(iState
State
p558
(dp559
g3
I46
sg4
g5
sg16
(lp560
(I0
I9
I1
tp561
a(I1
I7
F0.050000000000000044
tp562
a(I1
I10
F0.95
tp563
a(I2
I4
F0.95
tp564
a(I2
I7
F0.050000000000000044
tp565
asg21
I0
sg22
g365
sg23
I8
sg24
(lp566
(I0
I5
tp567
a(I1
I5
tp568
a(I2
I5
tp569
asg29
I2
sba(iState
State
p570
(dp571
g3
I47
sg4
g5
sg16
(lp572
(I0
I9
I1
tp573
a(I1
I7
F0.050000000000000044
tp574
a(I1
I10
F0.95
tp575
a(I2
I4
F0.95
tp576
a(I2
I7
F0.050000000000000044
tp577
asg21
I1
sg22
g365
sg23
I8
sg24
(lp578
(I0
F0.0
tp579
a(I1
F0.0
tp580
a(I2
F0.0
tp581
asg29
I2
sba(iState
State
p582
(dp583
g3
I48
sg4
g5
sg16
(lp584
(I0
I7
F0.050000000000000044
tp585
a(I0
I8
F0.95
tp586
a(I1
I7
F0.050000000000000044
tp587
a(I1
I10
F0.95
tp588
a(I2
I4
F0.95
tp589
a(I2
I7
F0.050000000000000044
tp590
asg21
I0
sg22
g78
sg23
I8
sg24
(lp591
(I0
F0.0
tp592
a(I1
F0.0
tp593
a(I2
F0.0
tp594
asg29
I2
sba(iState
State
p595
(dp596
g3
I49
sg4
g5
sg16
(lp597
(I0
I9
I1
tp598
a(I1
I7
F0.050000000000000044
tp599
a(I1
I10
F0.95
tp600
a(I2
I4
F0.95
tp601
a(I2
I7
F0.050000000000000044
tp602
asg21
I0
sg22
g242
sg23
I8
sg24
(lp603
(I0
I5
tp604
a(I1
I5
tp605
a(I2
I5
tp606
asg29
I2
sba(iState
State
p607
(dp608
g3
I50
sg4
g5
sg16
(lp609
(I0
I9
I1
tp610
a(I1
I7
F0.050000000000000044
tp611
a(I1
I10
F0.95
tp612
a(I2
I4
F0.95
tp613
a(I2
I7
F0.050000000000000044
tp614
asg21
I1
sg22
g242
sg23
I8
sg24
(lp615
(I0
F0.0
tp616
a(I1
F0.0
tp617
a(I2
F0.0
tp618
asg29
I2
sba(iState
State
p619
(dp620
g3
I51
sg4
g5
sg16
(lp621
(I0
I7
F0.050000000000000044
tp622
a(I0
I8
F0.95
tp623
a(I1
I7
F0.050000000000000044
tp624
a(I1
I10
F0.95
tp625
a(I2
I4
F0.95
tp626
a(I2
I7
F0.050000000000000044
tp627
asg21
I0
sg22
g47
sg23
I8
sg24
(lp628
(I0
F0.0
tp629
a(I1
F0.0
tp630
a(I2
F0.0
tp631
asg29
I2
sba(iState
State
p632
(dp633
g3
I52
sg4
g5
sg16
(lp634
(I0
I9
I1
tp635
a(I1
I7
F0.050000000000000044
tp636
a(I1
I10
F0.95
tp637
a(I2
I4
F0.95
tp638
a(I2
I7
F0.050000000000000044
tp639
asg21
I0
sg22
g276
sg23
I8
sg24
(lp640
(I0
I5
tp641
a(I1
I5
tp642
a(I2
I5
tp643
asg29
I2
sba(iState
State
p644
(dp645
g3
I53
sg4
g5
sg16
(lp646
(I0
I7
F0.050000000000000044
tp647
a(I0
I8
F0.95
tp648
a(I1
I7
F0.050000000000000044
tp649
a(I1
I10
F0.95
tp650
a(I2
I4
F0.95
tp651
a(I2
I7
F0.050000000000000044
tp652
asg21
I0
sg22
g288
sg23
I8
sg24
(lp653
(I0
F0.0
tp654
a(I1
F0.0
tp655
a(I2
F0.0
tp656
asg29
I2
sba(iState
State
p657
(dp658
g3
I54
sg4
g5
sg16
(lp659
(I0
I10
F0.050000000000000044
tp660
a(I0
I11
F0.95
tp661
a(I1
I10
F0.050000000000000044
tp662
a(I1
I13
F0.95
tp663
a(I2
I7
F0.95
tp664
a(I2
I10
F0.050000000000000044
tp665
asg21
I0
sg22
g36
sg23
I8
sg24
(lp666
(I0
F0.0
tp667
a(I1
F0.0
tp668
a(I2
F0.0
tp669
asg29
I3
sba(iState
State
p670
(dp671
g3
I55
sg4
g5
sg16
(lp672
(I0
I10
F0.050000000000000044
tp673
a(I0
I11
F0.95
tp674
a(I1
I10
F0.050000000000000044
tp675
a(I1
I13
F0.95
tp676
a(I2
I7
F0.95
tp677
a(I2
I10
F0.050000000000000044
tp678
asg21
I0
sg22
g171
sg23
I8
sg24
(lp679
(I0
F0.0
tp680
a(I1
F0.0
tp681
a(I2
F0.0
tp682
asg29
I3
sba(iState
State
p683
(dp684
g3
I56
sg4
g5
sg16
(lp685
(I0
I12
I1
tp686
a(I1
I10
F0.050000000000000044
tp687
a(I1
I13
F0.95
tp688
a(I2
I7
F0.95
tp689
a(I2
I10
F0.050000000000000044
tp690
asg21
I0
sg22
g140
sg23
I8
sg24
(lp691
(I0
I11
tp692
a(I1
I11
tp693
a(I2
I11
tp694
asg29
I3
sba(iState
State
p695
(dp696
g3
I57
sg4
g5
sg16
(lp697
(I0
I12
I1
tp698
a(I1
I10
F0.050000000000000044
tp699
a(I1
I13
F0.95
tp700
a(I2
I7
F0.95
tp701
a(I2
I10
F0.050000000000000044
tp702
asg21
I1
sg22
g140
sg23
I8
sg24
(lp703
(I0
F0.0
tp704
a(I1
F0.0
tp705
a(I2
F0.0
tp706
asg29
I3
sba(iState
State
p707
(dp708
g3
I58
sg4
g5
sg16
(lp709
(I0
I12
I1
tp710
a(I1
I10
F0.050000000000000044
tp711
a(I1
I13
F0.95
tp712
a(I2
I7
F0.95
tp713
a(I2
I10
F0.050000000000000044
tp714
asg21
I0
sg22
g516
sg23
I8
sg24
(lp715
(I0
I11
tp716
a(I1
I11
tp717
a(I2
I11
tp718
asg29
I3
sba(iState
State
p719
(dp720
g3
I59
sg4
g5
sg16
(lp721
(I0
I12
I1
tp722
a(I1
I10
F0.050000000000000044
tp723
a(I1
I13
F0.95
tp724
a(I2
I7
F0.95
tp725
a(I2
I10
F0.050000000000000044
tp726
asg21
I1
sg22
g516
sg23
I8
sg24
(lp727
(I0
F0.0
tp728
a(I1
F0.0
tp729
a(I2
F0.0
tp730
asg29
I3
sba(iState
State
p731
(dp732
g3
I60
sg4
g5
sg16
(lp733
(I0
I10
F0.050000000000000044
tp734
a(I0
I11
F0.95
tp735
a(I1
I10
F0.050000000000000044
tp736
a(I1
I13
F0.95
tp737
a(I2
I7
F0.95
tp738
a(I2
I10
F0.050000000000000044
tp739
asg21
I0
sg22
g109
sg23
I8
sg24
(lp740
(I0
F0.0
tp741
a(I1
F0.0
tp742
a(I2
F0.0
tp743
asg29
I3
sba(iState
State
p744
(dp745
g3
I61
sg4
g5
sg16
(lp746
(I0
I12
I1
tp747
a(I1
I10
F0.050000000000000044
tp748
a(I1
I13
F0.95
tp749
a(I2
I7
F0.95
tp750
a(I2
I10
F0.050000000000000044
tp751
asg21
I0
sg22
g365
sg23
I8
sg24
(lp752
(I0
I11
tp753
a(I1
I11
tp754
a(I2
I11
tp755
asg29
I3
sba(iState
State
p756
(dp757
g3
I62
sg4
g5
sg16
(lp758
(I0
I12
I1
tp759
a(I1
I10
F0.050000000000000044
tp760
a(I1
I13
F0.95
tp761
a(I2
I7
F0.95
tp762
a(I2
I10
F0.050000000000000044
tp763
asg21
I1
sg22
g365
sg23
I8
sg24
(lp764
(I0
F0.0
tp765
a(I1
F0.0
tp766
a(I2
F0.0
tp767
asg29
I3
sba(iState
State
p768
(dp769
g3
I63
sg4
g5
sg16
(lp770
(I0
I10
F0.050000000000000044
tp771
a(I0
I11
F0.95
tp772
a(I1
I10
F0.050000000000000044
tp773
a(I1
I13
F0.95
tp774
a(I2
I7
F0.95
tp775
a(I2
I10
F0.050000000000000044
tp776
asg21
I0
sg22
g78
sg23
I8
sg24
(lp777
(I0
F0.0
tp778
a(I1
F0.0
tp779
a(I2
F0.0
tp780
asg29
I3
sba(iState
State
p781
(dp782
g3
I64
sg4
g5
sg16
(lp783
(I0
I12
I1
tp784
a(I1
I10
F0.050000000000000044
tp785
a(I1
I13
F0.95
tp786
a(I2
I7
F0.95
tp787
a(I2
I10
F0.050000000000000044
tp788
asg21
I0
sg22
g402
sg23
I8
sg24
(lp789
(I0
I11
tp790
a(I1
I11
tp791
a(I2
I11
tp792
asg29
I3
sba(iState
State
p793
(dp794
g3
I65
sg4
g5
sg16
(lp795
(I0
I10
F0.050000000000000044
tp796
a(I0
I11
F0.95
tp797
a(I1
I10
F0.050000000000000044
tp798
a(I1
I13
F0.95
tp799
a(I2
I7
F0.95
tp800
a(I2
I10
F0.050000000000000044
tp801
asg21
I0
sg22
g242
sg23
I8
sg24
(lp802
(I0
F0.0
tp803
a(I1
F0.0
tp804
a(I2
F0.0
tp805
asg29
I3
sba(iState
State
p806
(dp807
g3
I66
sg4
g5
sg16
(lp808
(I0
I10
F0.050000000000000044
tp809
a(I0
I11
F0.95
tp810
a(I1
I10
F0.050000000000000044
tp811
a(I1
I13
F0.95
tp812
a(I2
I7
F0.95
tp813
a(I2
I10
F0.050000000000000044
tp814
asg21
I0
sg22
g47
sg23
I8
sg24
(lp815
(I0
F0.0
tp816
a(I1
F0.0
tp817
a(I2
F0.0
tp818
asg29
I3
sba(iState
State
p819
(dp820
g3
I67
sg4
g5
sg16
(lp821
(I0
I13
F0.050000000000000044
tp822
a(I0
I14
F0.95
tp823
a(I1
I13
F1.0
tp824
a(I2
I10
F0.95
tp825
a(I2
I13
F0.050000000000000044
tp826
asg21
I0
sg22
g36
sg23
I8
sg24
(lp827
(I0
F0.0
tp828
a(I1
F0.0
tp829
a(I2
F0.0
tp830
asg29
I4
sba(iState
State
p831
(dp832
g3
I68
sg4
g5
sg16
(lp833
(I0
I15
I1
tp834
a(I1
I13
F1.0
tp835
a(I2
I10
F0.95
tp836
a(I2
I13
F0.050000000000000044
tp837
asg21
I0
sg22
g171
sg23
I8
sg24
(lp838
(I0
I18
tp839
a(I1
I18
tp840
a(I2
I18
tp841
asg29
I4
sba(iState
State
p842
(dp843
g3
I69
sg4
g5
sg16
(lp844
(I0
I15
I1
tp845
a(I1
I13
F1.0
tp846
a(I2
I10
F0.95
tp847
a(I2
I13
F0.050000000000000044
tp848
asg21
I1
sg22
g171
sg23
I8
sg24
(lp849
(I0
F0.0
tp850
a(I1
F0.0
tp851
a(I2
F0.0
tp852
asg29
I4
sba(iState
State
p853
(dp854
g3
I70
sg4
g5
sg16
(lp855
(I0
I13
F0.050000000000000044
tp856
a(I0
I14
F0.95
tp857
a(I1
I13
F1.0
tp858
a(I2
I10
F0.95
tp859
a(I2
I13
F0.050000000000000044
tp860
asg21
I0
sg22
g140
sg23
I8
sg24
(lp861
(I0
F0.0
tp862
a(I1
F0.0
tp863
a(I2
F0.0
tp864
asg29
I4
sba(iState
State
p865
(dp866
g3
I71
sg4
g5
sg16
(lp867
(I0
I15
I1
tp868
a(I1
I13
F1.0
tp869
a(I2
I10
F0.95
tp870
a(I2
I13
F0.050000000000000044
tp871
asg21
I0
sg22
g516
sg23
I8
sg24
(lp872
(I0
I18
tp873
a(I1
I18
tp874
a(I2
I18
tp875
asg29
I4
sba(iState
State
p876
(dp877
g3
I72
sg4
g5
sg16
(lp878
(I0
I15
I1
tp879
a(I1
I13
F1.0
tp880
a(I2
I10
F0.95
tp881
a(I2
I13
F0.050000000000000044
tp882
asg21
I1
sg22
g516
sg23
I8
sg24
(lp883
(I0
F0.0
tp884
a(I1
F0.0
tp885
a(I2
F0.0
tp886
asg29
I4
sba(iState
State
p887
(dp888
g3
I73
sg4
g5
sg16
(lp889
(I0
I13
F0.050000000000000044
tp890
a(I0
I14
F0.95
tp891
a(I1
I13
F1.0
tp892
a(I2
I10
F0.95
tp893
a(I2
I13
F0.050000000000000044
tp894
asg21
I0
sg22
g109
sg23
I8
sg24
(lp895
(I0
F0.0
tp896
a(I1
F0.0
tp897
a(I2
F0.0
tp898
asg29
I4
sba(iState
State
p899
(dp900
g3
I74
sg4
g5
sg16
(lp901
(I0
I15
I1
tp902
a(I1
I13
F1.0
tp903
a(I2
I10
F0.95
tp904
a(I2
I13
F0.050000000000000044
tp905
asg21
I0
sg22
g553
sg23
I8
sg24
(lp906
(I0
I18
tp907
a(I1
I18
tp908
a(I2
I18
tp909
asg29
I4
sba(iState
State
p910
(dp911
g3
I75
sg4
g5
sg16
(lp912
(I0
I13
F0.050000000000000044
tp913
a(I0
I14
F0.95
tp914
a(I1
I13
F1.0
tp915
a(I2
I10
F0.95
tp916
a(I2
I13
F0.050000000000000044
tp917
asg21
I0
sg22
g365
sg23
I8
sg24
(lp918
(I0
F0.0
tp919
a(I1
F0.0
tp920
a(I2
F0.0
tp921
asg29
I4
sba(iState
State
p922
(dp923
g3
I76
sg4
g5
sg16
(lp924
(I0
I13
F0.050000000000000044
tp925
a(I0
I14
F0.95
tp926
a(I1
I13
F1.0
tp927
a(I2
I10
F0.95
tp928
a(I2
I13
F0.050000000000000044
tp929
asg21
I0
sg22
g78
sg23
I8
sg24
(lp930
(I0
F0.0
tp931
a(I1
F0.0
tp932
a(I2
F0.0
tp933
asg29
I4
sba(iState
State
p934
(dp935
g3
I77
sg4
g5
sg16
(lp936
(I0
I16
F0.050000000000000044
tp937
a(I0
I21
F0.95
tp938
a(I1
I16
F0.050000000000000044
tp939
a(I1
I26
F0.95
tp940
a(I2
I16
F1.0
tp941
asg21
I0
sg22
g36
sg23
I16
sg24
(lp942
(I0
F0.0
tp943
a(I1
F0.0
tp944
a(I2
F0.0
tp945
asg29
I0
sba(iState
State
p946
(dp947
g3
I78
sg4
g5
sg16
(lp948
(I0
I18
F0.050000000000000044
tp949
a(I0
I23
F0.95
tp950
a(I1
I18
F0.050000000000000044
tp951
a(I1
I29
F0.95
tp952
a(I2
I18
F1.0
tp953
asg21
I0
sg22
g109
sg23
I16
sg24
(lp954
(I0
F0.0
tp955
a(I1
F0.0
tp956
a(I2
F0.0
tp957
asg29
I0
sba(iState
State
p958
(dp959
g3
I79
sg4
g5
sg16
(lp960
(I0
I19
F0.050000000000000044
tp961
a(I0
I24
F0.95
tp962
a(I1
I19
F0.050000000000000044
tp963
a(I1
I32
F0.95
tp964
a(I2
I19
F1.0
tp965
asg21
I0
sg22
g78
sg23
I16
sg24
(lp966
(I0
F0.0
tp967
a(I1
F0.0
tp968
a(I2
F0.0
tp969
asg29
I0
sba(iState
State
p970
(dp971
g3
I80
sg4
g5
sg16
(lp972
(I0
I22
I1
tp973
a(I1
I22
F0.050000000000000044
tp974
a(I1
I36
F0.95
tp975
a(I2
I22
F1.0
tp976
asg21
I0
sg22
g47
sg23
I16
sg24
(lp977
(I0
I15
tp978
a(I1
I15
tp979
a(I2
I15
tp980
asg29
I0
sba(iState
State
p981
(dp982
g3
I81
sg4
g5
sg16
(lp983
(I0
I22
I1
tp984
a(I1
I22
F0.050000000000000044
tp985
a(I1
I36
F0.95
tp986
a(I2
I22
F1.0
tp987
asg21
I1
sg22
g47
sg23
I16
sg24
(lp988
(I0
F0.0
tp989
a(I1
F0.0
tp990
a(I2
F0.0
tp991
asg29
I0
sba(iState
State
p992
(dp993
g3
I82
sg4
g5
sg16
(lp994
(I0
I25
I1
tp995
a(I1
I25
F0.050000000000000044
tp996
a(I1
I38
F0.95
tp997
a(I2
I25
F1.0
tp998
asg21
I0
sg22
g288
sg23
I16
sg24
(lp999
(I0
I15
tp1000
a(I1
I15
tp1001
a(I2
I15
tp1002
asg29
I0
sba(iState
State
p1003
(dp1004
g3
I83
sg4
g5
sg16
(lp1005
(I0
I26
F0.050000000000000044
tp1006
a(I0
I31
F0.95
tp1007
a(I1
I26
F0.050000000000000044
tp1008
a(I1
I39
F0.95
tp1009
a(I2
I16
F0.95
tp1010
a(I2
I26
F0.050000000000000044
tp1011
asg21
I0
sg22
g36
sg23
I16
sg24
(lp1012
(I0
F0.0
tp1013
a(I1
F0.0
tp1014
a(I2
F0.0
tp1015
asg29
I1
sba(iState
State
p1016
(dp1017
g3
I84
sg4
g5
sg16
(lp1018
(I0
I28
F0.050000000000000044
tp1019
a(I0
I33
F0.95
tp1020
a(I1
I28
F0.050000000000000044
tp1021
a(I1
I41
F0.95
tp1022
a(I2
I17
F0.95
tp1023
a(I2
I28
F0.050000000000000044
tp1024
asg21
I0
sg22
g140
sg23
I16
sg24
(lp1025
(I0
F0.0
tp1026
a(I1
F0.0
tp1027
a(I2
F0.0
tp1028
asg29
I1
sba(iState
State
p1029
(dp1030
g3
I85
sg4
g5
sg16
(lp1031
(I0
I29
F0.050000000000000044
tp1032
a(I0
I34
F0.95
tp1033
a(I1
I29
F0.050000000000000044
tp1034
a(I1
I44
F0.95
tp1035
a(I2
I18
F0.95
tp1036
a(I2
I29
F0.050000000000000044
tp1037
asg21
I0
sg22
g109
sg23
I16
sg24
(lp1038
(I0
F0.0
tp1039
a(I1
F0.0
tp1040
a(I2
F0.0
tp1041
asg29
I1
sba(iState
State
p1042
(dp1043
g3
I86
sg4
g5
sg16
(lp1044
(I0
I32
I1
tp1045
a(I1
I32
F0.050000000000000044
tp1046
a(I1
I48
F0.95
tp1047
a(I2
I19
F0.95
tp1048
a(I2
I32
F0.050000000000000044
tp1049
asg21
I0
sg22
g78
sg23
I16
sg24
(lp1050
(I0
I13
tp1051
a(I1
I13
tp1052
a(I2
I13
tp1053
asg29
I1
sba(iState
State
p1054
(dp1055
g3
I87
sg4
g5
sg16
(lp1056
(I0
I32
I1
tp1057
a(I1
I32
F0.050000000000000044
tp1058
a(I1
I48
F0.95
tp1059
a(I2
I19
F0.95
tp1060
a(I2
I32
F0.050000000000000044
tp1061
asg21
I1
sg22
g78
sg23
I16
sg24
(lp1062
(I0
F0.0
tp1063
a(I1
F0.0
tp1064
a(I2
F0.0
tp1065
asg29
I1
sba(iState
State
p1066
(dp1067
g3
I88
sg4
g5
sg16
(lp1068
(I0
I35
I1
tp1069
a(I1
I35
F0.050000000000000044
tp1070
a(I1
I50
F0.95
tp1071
a(I2
I20
F0.95
tp1072
a(I2
I35
F0.050000000000000044
tp1073
asg21
I0
sg22
g242
sg23
I16
sg24
(lp1074
(I0
I13
tp1075
a(I1
I13
tp1076
a(I2
I13
tp1077
asg29
I1
sba(iState
State
p1078
(dp1079
g3
I89
sg4
g5
sg16
(lp1080
(I0
I36
F0.050000000000000044
tp1081
a(I0
I37
F0.95
tp1082
a(I1
I36
F0.050000000000000044
tp1083
a(I1
I51
F0.95
tp1084
a(I2
I22
F0.95
tp1085
a(I2
I36
F0.050000000000000044
tp1086
asg21
I0
sg22
g47
sg23
I16
sg24
(lp1087
(I0
F0.0
tp1088
a(I1
F0.0
tp1089
a(I2
F0.0
tp1090
asg29
I1
sba(iState
State
p1091
(dp1092
g3
I90
sg4
g5
sg16
(lp1093
(I0
I38
I1
tp1094
a(I1
I38
F0.050000000000000044
tp1095
a(I1
I53
F0.95
tp1096
a(I2
I25
F0.95
tp1097
a(I2
I38
F0.050000000000000044
tp1098
asg21
I0
sg22
g288
sg23
I16
sg24
(lp1099
(I0
I13
tp1100
a(I1
I13
tp1101
a(I2
I13
tp1102
asg29
I1
sba(iState
State
p1103
(dp1104
g3
I91
sg4
g5
sg16
(lp1105
(I0
I39
F0.050000000000000044
tp1106
a(I0
I43
F0.95
tp1107
a(I1
I39
F0.050000000000000044
tp1108
a(I1
I54
F0.95
tp1109
a(I2
I26
F0.95
tp1110
a(I2
I39
F0.050000000000000044
tp1111
asg21
I0
sg22
g36
sg23
I16
sg24
(lp1112
(I0
F0.0
tp1113
a(I1
F0.0
tp1114
a(I2
F0.0
tp1115
asg29
I2
sba(iState
State
p1116
(dp1117
g3
I92
sg4
g5
sg16
(lp1118
(I0
I40
F0.050000000000000044
tp1119
a(I0
I45
F0.95
tp1120
a(I1
I40
F0.050000000000000044
tp1121
a(I1
I55
F0.95
tp1122
a(I2
I27
F0.95
tp1123
a(I2
I40
F0.050000000000000044
tp1124
asg21
I0
sg22
g171
sg23
I16
sg24
(lp1125
(I0
F0.0
tp1126
a(I1
F0.0
tp1127
a(I2
F0.0
tp1128
asg29
I2
sba(iState
State
p1129
(dp1130
g3
I93
sg4
g5
sg16
(lp1131
(I0
I41
F0.050000000000000044
tp1132
a(I0
I46
F0.95
tp1133
a(I1
I41
F0.050000000000000044
tp1134
a(I1
I57
F0.95
tp1135
a(I2
I28
F0.95
tp1136
a(I2
I41
F0.050000000000000044
tp1137
asg21
I0
sg22
g140
sg23
I16
sg24
(lp1138
(I0
F0.0
tp1139
a(I1
F0.0
tp1140
a(I2
F0.0
tp1141
asg29
I2
sba(iState
State
p1142
(dp1143
g3
I94
sg4
g5
sg16
(lp1144
(I0
I44
I1
tp1145
a(I1
I44
F0.050000000000000044
tp1146
a(I1
I60
F0.95
tp1147
a(I2
I29
F0.95
tp1148
a(I2
I44
F0.050000000000000044
tp1149
asg21
I0
sg22
g109
sg23
I16
sg24
(lp1150
(I0
I5
tp1151
a(I1
I5
tp1152
a(I2
I5
tp1153
asg29
I2
sba(iState
State
p1154
(dp1155
g3
I95
sg4
g5
sg16
(lp1156
(I0
I44
I1
tp1157
a(I1
I44
F0.050000000000000044
tp1158
a(I1
I60
F0.95
tp1159
a(I2
I29
F0.95
tp1160
a(I2
I44
F0.050000000000000044
tp1161
asg21
I1
sg22
g109
sg23
I16
sg24
(lp1162
(I0
F0.0
tp1163
a(I1
F0.0
tp1164
a(I2
F0.0
tp1165
asg29
I2
sba(iState
State
p1166
(dp1167
g3
I96
sg4
g5
sg16
(lp1168
(I0
I47
I1
tp1169
a(I1
I47
F0.050000000000000044
tp1170
a(I1
I62
F0.95
tp1171
a(I2
I30
F0.95
tp1172
a(I2
I47
F0.050000000000000044
tp1173
asg21
I0
sg22
g365
sg23
I16
sg24
(lp1174
(I0
I5
tp1175
a(I1
I5
tp1176
a(I2
I5
tp1177
asg29
I2
sba(iState
State
p1178
(dp1179
g3
I97
sg4
g5
sg16
(lp1180
(I0
I48
F0.050000000000000044
tp1181
a(I0
I49
F0.95
tp1182
a(I1
I48
F0.050000000000000044
tp1183
a(I1
I63
F0.95
tp1184
a(I2
I32
F0.95
tp1185
a(I2
I48
F0.050000000000000044
tp1186
asg21
I0
sg22
g78
sg23
I16
sg24
(lp1187
(I0
F0.0
tp1188
a(I1
F0.0
tp1189
a(I2
F0.0
tp1190
asg29
I2
sba(iState
State
p1191
(dp1192
g3
I98
sg4
g5
sg16
(lp1193
(I0
I50
I1
tp1194
a(I1
I50
F0.050000000000000044
tp1195
a(I1
I65
F0.95
tp1196
a(I2
I35
F0.95
tp1197
a(I2
I50
F0.050000000000000044
tp1198
asg21
I0
sg22
g242
sg23
I16
sg24
(lp1199
(I0
I5
tp1200
a(I1
I5
tp1201
a(I2
I5
tp1202
asg29
I2
sba(iState
State
p1203
(dp1204
g3
I99
sg4
g5
sg16
(lp1205
(I0
I51
F0.050000000000000044
tp1206
a(I0
I52
F0.95
tp1207
a(I1
I51
F0.050000000000000044
tp1208
a(I1
I66
F0.95
tp1209
a(I2
I36
F0.95
tp1210
a(I2
I51
F0.050000000000000044
tp1211
asg21
I0
sg22
g47
sg23
I16
sg24
(lp1212
(I0
F0.0
tp1213
a(I1
F0.0
tp1214
a(I2
F0.0
tp1215
asg29
I2
sba(iState
State
p1216
(dp1217
g3
I100
sg4
g5
sg16
(lp1218
(I0
I54
F0.050000000000000044
tp1219
a(I0
I56
F0.95
tp1220
a(I1
I54
F0.050000000000000044
tp1221
a(I1
I67
F0.95
tp1222
a(I2
I39
F0.95
tp1223
a(I2
I54
F0.050000000000000044
tp1224
asg21
I0
sg22
g36
sg23
I16
sg24
(lp1225
(I0
F0.0
tp1226
a(I1
F0.0
tp1227
a(I2
F0.0
tp1228
asg29
I3
sba(iState
State
p1229
(dp1230
g3
I101
sg4
g5
sg16
(lp1231
(I0
I55
F0.050000000000000044
tp1232
a(I0
I58
F0.95
tp1233
a(I1
I55
F0.050000000000000044
tp1234
a(I1
I69
F0.95
tp1235
a(I2
I40
F0.95
tp1236
a(I2
I55
F0.050000000000000044
tp1237
asg21
I0
sg22
g171
sg23
I16
sg24
(lp1238
(I0
F0.0
tp1239
a(I1
F0.0
tp1240
a(I2
F0.0
tp1241
asg29
I3
sba(iState
State
p1242
(dp1243
g3
I102
sg4
g5
sg16
(lp1244
(I0
I57
I1
tp1245
a(I1
I57
F0.050000000000000044
tp1246
a(I1
I70
F0.95
tp1247
a(I2
I41
F0.95
tp1248
a(I2
I57
F0.050000000000000044
tp1249
asg21
I0
sg22
g140
sg23
I16
sg24
(lp1250
(I0
I11
tp1251
a(I1
I11
tp1252
a(I2
I11
tp1253
asg29
I3
sba(iState
State
p1254
(dp1255
g3
I103
sg4
g5
sg16
(lp1256
(I0
I57
I1
tp1257
a(I1
I57
F0.050000000000000044
tp1258
a(I1
I70
F0.95
tp1259
a(I2
I41
F0.95
tp1260
a(I2
I57
F0.050000000000000044
tp1261
asg21
I1
sg22
g140
sg23
I16
sg24
(lp1262
(I0
F0.0
tp1263
a(I1
F0.0
tp1264
a(I2
F0.0
tp1265
asg29
I3
sba(iState
State
p1266
(dp1267
g3
I104
sg4
g5
sg16
(lp1268
(I0
I59
I1
tp1269
a(I1
I59
F0.050000000000000044
tp1270
a(I1
I72
F0.95
tp1271
a(I2
I42
F0.95
tp1272
a(I2
I59
F0.050000000000000044
tp1273
asg21
I0
sg22
g516
sg23
I16
sg24
(lp1274
(I0
I11
tp1275
a(I1
I11
tp1276
a(I2
I11
tp1277
asg29
I3
sba(iState
State
p1278
(dp1279
g3
I105
sg4
g5
sg16
(lp1280
(I0
I60
F0.050000000000000044
tp1281
a(I0
I61
F0.95
tp1282
a(I1
I60
F0.050000000000000044
tp1283
a(I1
I73
F0.95
tp1284
a(I2
I44
F0.95
tp1285
a(I2
I60
F0.050000000000000044
tp1286
asg21
I0
sg22
g109
sg23
I16
sg24
(lp1287
(I0
F0.0
tp1288
a(I1
F0.0
tp1289
a(I2
F0.0
tp1290
asg29
I3
sba(iState
State
p1291
(dp1292
g3
I106
sg4
g5
sg16
(lp1293
(I0
I62
I1
tp1294
a(I1
I62
F0.050000000000000044
tp1295
a(I1
I75
F0.95
tp1296
a(I2
I47
F0.95
tp1297
a(I2
I62
F0.050000000000000044
tp1298
asg21
I0
sg22
g365
sg23
I16
sg24
(lp1299
(I0
I11
tp1300
a(I1
I11
tp1301
a(I2
I11
tp1302
asg29
I3
sba(iState
State
p1303
(dp1304
g3
I107
sg4
g5
sg16
(lp1305
(I0
I63
F0.050000000000000044
tp1306
a(I0
I64
F0.95
tp1307
a(I1
I63
F0.050000000000000044
tp1308
a(I1
I76
F0.95
tp1309
a(I2
I48
F0.95
tp1310
a(I2
I63
F0.050000000000000044
tp1311
asg21
I0
sg22
g78
sg23
I16
sg24
(lp1312
(I0
F0.0
tp1313
a(I1
F0.0
tp1314
a(I2
F0.0
tp1315
asg29
I3
sba(iState
State
p1316
(dp1317
g3
I108
sg4
g5
sg16
(lp1318
(I0
I67
F0.050000000000000044
tp1319
a(I0
I68
F0.95
tp1320
a(I1
I67
F1.0
tp1321
a(I2
I54
F0.95
tp1322
a(I2
I67
F0.050000000000000044
tp1323
asg21
I0
sg22
g36
sg23
I16
sg24
(lp1324
(I0
F0.0
tp1325
a(I1
F0.0
tp1326
a(I2
F0.0
tp1327
asg29
I4
sba(iState
State
p1328
(dp1329
g3
I109
sg4
g5
sg16
(lp1330
(I0
I69
I1
tp1331
a(I1
I69
F1.0
tp1332
a(I2
I55
F0.95
tp1333
a(I2
I69
F0.050000000000000044
tp1334
asg21
I0
sg22
g171
sg23
I16
sg24
(lp1335
(I0
I18
tp1336
a(I1
I18
tp1337
a(I2
I18
tp1338
asg29
I4
sba(iState
State
p1339
(dp1340
g3
I110
sg4
g5
sg16
(lp1341
(I0
I69
I1
tp1342
a(I1
I69
F1.0
tp1343
a(I2
I55
F0.95
tp1344
a(I2
I69
F0.050000000000000044
tp1345
asg21
I1
sg22
g171
sg23
I16
sg24
(lp1346
(I0
F0.0
tp1347
a(I1
F0.0
tp1348
a(I2
F0.0
tp1349
asg29
I4
sba(iState
State
p1350
(dp1351
g3
I111
sg4
g5
sg16
(lp1352
(I0
I70
F0.050000000000000044
tp1353
a(I0
I71
F0.95
tp1354
a(I1
I70
F1.0
tp1355
a(I2
I57
F0.95
tp1356
a(I2
I70
F0.050000000000000044
tp1357
asg21
I0
sg22
g140
sg23
I16
sg24
(lp1358
(I0
F0.0
tp1359
a(I1
F0.0
tp1360
a(I2
F0.0
tp1361
asg29
I4
sba(iState
State
p1362
(dp1363
g3
I112
sg4
g5
sg16
(lp1364
(I0
I72
I1
tp1365
a(I1
I72
F1.0
tp1366
a(I2
I59
F0.95
tp1367
a(I2
I72
F0.050000000000000044
tp1368
asg21
I0
sg22
g516
sg23
I16
sg24
(lp1369
(I0
I18
tp1370
a(I1
I18
tp1371
a(I2
I18
tp1372
asg29
I4
sba(iState
State
p1373
(dp1374
g3
I113
sg4
g5
sg16
(lp1375
(I0
I73
F0.050000000000000044
tp1376
a(I0
I74
F0.95
tp1377
a(I1
I73
F1.0
tp1378
a(I2
I60
F0.95
tp1379
a(I2
I73
F0.050000000000000044
tp1380
asg21
I0
sg22
g109
sg23
I16
sg24
(lp1381
(I0
F0.0
tp1382
a(I1
F0.0
tp1383
a(I2
F0.0
tp1384
asg29
I4
sba(iState
State
p1385
(dp1386
g3
I114
sg4
g5
sg16
(lp1387
(I0
I77
F0.050000000000000044
tp1388
a(I0
I80
F0.95
tp1389
a(I1
I77
F0.050000000000000044
tp1390
a(I1
I83
F0.95
tp1391
a(I2
I77
F1.0
tp1392
asg21
I0
sg22
g36
sg23
I24
sg24
(lp1393
(I0
F0.0
tp1394
a(I1
F0.0
tp1395
a(I2
F0.0
tp1396
asg29
I0
sba(iState
State
p1397
(dp1398
g3
I115
sg4
g5
sg16
(lp1399
(I0
I79
F0.050000000000000044
tp1400
a(I0
I82
F0.95
tp1401
a(I1
I79
F0.050000000000000044
tp1402
a(I1
I87
F0.95
tp1403
a(I2
I79
F1.0
tp1404
asg21
I0
sg22
g78
sg23
I24
sg24
(lp1405
(I0
F0.0
tp1406
a(I1
F0.0
tp1407
a(I2
F0.0
tp1408
asg29
I0
sba(iState
State
p1409
(dp1410
g3
I116
sg4
g5
sg16
(lp1411
(I0
I81
I1
tp1412
a(I1
I81
F0.050000000000000044
tp1413
a(I1
I89
F0.95
tp1414
a(I2
I81
F1.0
tp1415
asg21
I0
sg22
g47
sg23
I24
sg24
(lp1416
(I0
I15
tp1417
a(I1
I15
tp1418
a(I2
I15
tp1419
asg29
I0
sba(iState
State
p1420
(dp1421
g3
I117
sg4
g5
sg16
(lp1422
(I0
I81
I1
tp1423
a(I1
I81
F0.050000000000000044
tp1424
a(I1
I89
F0.95
tp1425
a(I2
I81
F1.0
tp1426
asg21
I1
sg22
g47
sg23
I24
sg24
(lp1427
(I0
F0.0
tp1428
a(I1
F0.0
tp1429
a(I2
F0.0
tp1430
asg29
I0
sba(iState
State
p1431
(dp1432
g3
I118
sg4
g5
sg16
(lp1433
(I0
I83
F0.050000000000000044
tp1434
a(I0
I86
F0.95
tp1435
a(I1
I83
F0.050000000000000044
tp1436
a(I1
I91
F0.95
tp1437
a(I2
I77
F0.95
tp1438
a(I2
I83
F0.050000000000000044
tp1439
asg21
I0
sg22
g36
sg23
I24
sg24
(lp1440
(I0
F0.0
tp1441
a(I1
F0.0
tp1442
a(I2
F0.0
tp1443
asg29
I1
sba(iState
State
p1444
(dp1445
g3
I119
sg4
g5
sg16
(lp1446
(I0
I85
F0.050000000000000044
tp1447
a(I0
I88
F0.95
tp1448
a(I1
I85
F0.050000000000000044
tp1449
a(I1
I95
F0.95
tp1450
a(I2
I78
F0.95
tp1451
a(I2
I85
F0.050000000000000044
tp1452
asg21
I0
sg22
g109
sg23
I24
sg24
(lp1453
(I0
F0.0
tp1454
a(I1
F0.0
tp1455
a(I2
F0.0
tp1456
asg29
I1
sba(iState
State
p1457
(dp1458
g3
I120
sg4
g5
sg16
(lp1459
(I0
I87
I1
tp1460
a(I1
I87
F0.050000000000000044
tp1461
a(I1
I97
F0.95
tp1462
a(I2
I79
F0.95
tp1463
a(I2
I87
F0.050000000000000044
tp1464
asg21
I0
sg22
g78
sg23
I24
sg24
(lp1465
(I0
I13
tp1466
a(I1
I13
tp1467
a(I2
I13
tp1468
asg29
I1
sba(iState
State
p1469
(dp1470
g3
I121
sg4
g5
sg16
(lp1471
(I0
I87
I1
tp1472
a(I1
I87
F0.050000000000000044
tp1473
a(I1
I97
F0.95
tp1474
a(I2
I79
F0.95
tp1475
a(I2
I87
F0.050000000000000044
tp1476
asg21
I1
sg22
g78
sg23
I24
sg24
(lp1477
(I0
F0.0
tp1478
a(I1
F0.0
tp1479
a(I2
F0.0
tp1480
asg29
I1
sba(iState
State
p1481
(dp1482
g3
I122
sg4
g5
sg16
(lp1483
(I0
I89
F0.050000000000000044
tp1484
a(I0
I90
F0.95
tp1485
a(I1
I89
F0.050000000000000044
tp1486
a(I1
I99
F0.95
tp1487
a(I2
I81
F0.95
tp1488
a(I2
I89
F0.050000000000000044
tp1489
asg21
I0
sg22
g47
sg23
I24
sg24
(lp1490
(I0
F0.0
tp1491
a(I1
F0.0
tp1492
a(I2
F0.0
tp1493
asg29
I1
sba(iState
State
p1494
(dp1495
g3
I123
sg4
g5
sg16
(lp1496
(I0
I91
F0.050000000000000044
tp1497
a(I0
I94
F0.95
tp1498
a(I1
I91
F0.050000000000000044
tp1499
a(I1
I100
F0.95
tp1500
a(I2
I83
F0.95
tp1501
a(I2
I91
F0.050000000000000044
tp1502
asg21
I0
sg22
g36
sg23
I24
sg24
(lp1503
(I0
F0.0
tp1504
a(I1
F0.0
tp1505
a(I2
F0.0
tp1506
asg29
I2
sba(iState
State
p1507
(dp1508
g3
I124
sg4
g5
sg16
(lp1509
(I0
I93
F0.050000000000000044
tp1510
a(I0
I96
F0.95
tp1511
a(I1
I93
F0.050000000000000044
tp1512
a(I1
I103
F0.95
tp1513
a(I2
I84
F0.95
tp1514
a(I2
I93
F0.050000000000000044
tp1515
asg21
I0
sg22
g140
sg23
I24
sg24
(lp1516
(I0
F0.0
tp1517
a(I1
F0.0
tp1518
a(I2
F0.0
tp1519
asg29
I2
sba(iState
State
p1520
(dp1521
g3
I125
sg4
g5
sg16
(lp1522
(I0
I95
I1
tp1523
a(I1
I95
F0.050000000000000044
tp1524
a(I1
I105
F0.95
tp1525
a(I2
I85
F0.95
tp1526
a(I2
I95
F0.050000000000000044
tp1527
asg21
I0
sg22
g109
sg23
I24
sg24
(lp1528
(I0
I5
tp1529
a(I1
I5
tp1530
a(I2
I5
tp1531
asg29
I2
sba(iState
State
p1532
(dp1533
g3
I126
sg4
g5
sg16
(lp1534
(I0
I95
I1
tp1535
a(I1
I95
F0.050000000000000044
tp1536
a(I1
I105
F0.95
tp1537
a(I2
I85
F0.95
tp1538
a(I2
I95
F0.050000000000000044
tp1539
asg21
I1
sg22
g109
sg23
I24
sg24
(lp1540
(I0
F0.0
tp1541
a(I1
F0.0
tp1542
a(I2
F0.0
tp1543
asg29
I2
sba(iState
State
p1544
(dp1545
g3
I127
sg4
g5
sg16
(lp1546
(I0
I97
F0.050000000000000044
tp1547
a(I0
I98
F0.95
tp1548
a(I1
I97
F0.050000000000000044
tp1549
a(I1
I107
F0.95
tp1550
a(I2
I87
F0.95
tp1551
a(I2
I97
F0.050000000000000044
tp1552
asg21
I0
sg22
g78
sg23
I24
sg24
(lp1553
(I0
F0.0
tp1554
a(I1
F0.0
tp1555
a(I2
F0.0
tp1556
asg29
I2
sba(iState
State
p1557
(dp1558
g3
I128
sg4
g5
sg16
(lp1559
(I0
I100
F0.050000000000000044
tp1560
a(I0
I102
F0.95
tp1561
a(I1
I100
F0.050000000000000044
tp1562
a(I1
I108
F0.95
tp1563
a(I2
I91
F0.95
tp1564
a(I2
I100
F0.050000000000000044
tp1565
asg21
I0
sg22
g36
sg23
I24
sg24
(lp1566
(I0
F0.0
tp1567
a(I1
F0.0
tp1568
a(I2
F0.0
tp1569
asg29
I3
sba(iState
State
p1570
(dp1571
g3
I129
sg4
g5
sg16
(lp1572
(I0
I101
F0.050000000000000044
tp1573
a(I0
I104
F0.95
tp1574
a(I1
I101
F0.050000000000000044
tp1575
a(I1
I110
F0.95
tp1576
a(I2
I92
F0.95
tp1577
a(I2
I101
F0.050000000000000044
tp1578
asg21
I0
sg22
g171
sg23
I24
sg24
(lp1579
(I0
F0.0
tp1580
a(I1
F0.0
tp1581
a(I2
F0.0
tp1582
asg29
I3
sba(iState
State
p1583
(dp1584
g3
I130
sg4
g5
sg16
(lp1585
(I0
I103
I1
tp1586
a(I1
I103
F0.050000000000000044
tp1587
a(I1
I111
F0.95
tp1588
a(I2
I93
F0.95
tp1589
a(I2
I103
F0.050000000000000044
tp1590
asg21
I0
sg22
g140
sg23
I24
sg24
(lp1591
(I0
I11
tp1592
a(I1
I11
tp1593
a(I2
I11
tp1594
asg29
I3
sba(iState
State
p1595
(dp1596
g3
I131
sg4
g5
sg16
(lp1597
(I0
I103
I1
tp1598
a(I1
I103
F0.050000000000000044
tp1599
a(I1
I111
F0.95
tp1600
a(I2
I93
F0.95
tp1601
a(I2
I103
F0.050000000000000044
tp1602
asg21
I1
sg22
g140
sg23
I24
sg24
(lp1603
(I0
F0.0
tp1604
a(I1
F0.0
tp1605
a(I2
F0.0
tp1606
asg29
I3
sba(iState
State
p1607
(dp1608
g3
I132
sg4
g5
sg16
(lp1609
(I0
I105
F0.050000000000000044
tp1610
a(I0
I106
F0.95
tp1611
a(I1
I105
F0.050000000000000044
tp1612
a(I1
I113
F0.95
tp1613
a(I2
I95
F0.95
tp1614
a(I2
I105
F0.050000000000000044
tp1615
asg21
I0
sg22
g109
sg23
I24
sg24
(lp1616
(I0
F0.0
tp1617
a(I1
F0.0
tp1618
a(I2
F0.0
tp1619
asg29
I3
sba(iState
State
p1620
(dp1621
g3
I133
sg4
g5
sg16
(lp1622
(I0
I108
F0.050000000000000044
tp1623
a(I0
I109
F0.95
tp1624
a(I1
I108
F1.0
tp1625
a(I2
I100
F0.95
tp1626
a(I2
I108
F0.050000000000000044
tp1627
asg21
I0
sg22
g36
sg23
I24
sg24
(lp1628
(I0
F0.0
tp1629
a(I1
F0.0
tp1630
a(I2
F0.0
tp1631
asg29
I4
sba(iState
State
p1632
(dp1633
g3
I134
sg4
g5
sg16
(lp1634
(I0
I110
I1
tp1635
a(I1
I110
F1.0
tp1636
a(I2
I101
F0.95
tp1637
a(I2
I110
F0.050000000000000044
tp1638
asg21
I0
sg22
g171
sg23
I24
sg24
(lp1639
(I0
I18
tp1640
a(I1
I18
tp1641
a(I2
I18
tp1642
asg29
I4
sba(iState
State
p1643
(dp1644
g3
I135
sg4
g5
sg16
(lp1645
(I0
I110
I1
tp1646
a(I1
I110
F1.0
tp1647
a(I2
I101
F0.95
tp1648
a(I2
I110
F0.050000000000000044
tp1649
asg21
I1
sg22
g171
sg23
I24
sg24
(lp1650
(I0
F0.0
tp1651
a(I1
F0.0
tp1652
a(I2
F0.0
tp1653
asg29
I4
sba(iState
State
p1654
(dp1655
g3
I136
sg4
g5
sg16
(lp1656
(I0
I111
F0.050000000000000044
tp1657
a(I0
I112
F0.95
tp1658
a(I1
I111
F1.0
tp1659
a(I2
I103
F0.95
tp1660
a(I2
I111
F0.050000000000000044
tp1661
asg21
I0
sg22
g140
sg23
I24
sg24
(lp1662
(I0
F0.0
tp1663
a(I1
F0.0
tp1664
a(I2
F0.0
tp1665
asg29
I4
sba(iState
State
p1666
(dp1667
g3
I137
sg4
g5
sg16
(lp1668
(I0
I114
F0.050000000000000044
tp1669
a(I0
I116
F0.95
tp1670
a(I1
I114
F0.050000000000000044
tp1671
a(I1
I118
F0.95
tp1672
a(I2
I114
F1.0
tp1673
asg21
I0
sg22
g36
sg23
I32
sg24
(lp1674
(I0
F0.0
tp1675
a(I1
F0.0
tp1676
a(I2
F0.0
tp1677
asg29
I0
sba(iState
State
p1678
(dp1679
g3
I138
sg4
g5
sg16
(lp1680
(I0
I117
I1
tp1681
a(I1
I117
F0.050000000000000044
tp1682
a(I1
I122
F0.95
tp1683
a(I2
I117
F1.0
tp1684
asg21
I0
sg22
g47
sg23
I32
sg24
(lp1685
(I0
I15
tp1686
a(I1
I15
tp1687
a(I2
I15
tp1688
asg29
I0
sba(iState
State
p1689
(dp1690
g3
I139
sg4
g5
sg16
(lp1691
(I0
I117
I1
tp1692
a(I1
I117
F0.050000000000000044
tp1693
a(I1
I122
F0.95
tp1694
a(I2
I117
F1.0
tp1695
asg21
I1
sg22
g47
sg23
I32
sg24
(lp1696
(I0
F0.0
tp1697
a(I1
F0.0
tp1698
a(I2
F0.0
tp1699
asg29
I0
sba(iState
State
p1700
(dp1701
g3
I140
sg4
g5
sg16
(lp1702
(I0
I118
F0.050000000000000044
tp1703
a(I0
I120
F0.95
tp1704
a(I1
I118
F0.050000000000000044
tp1705
a(I1
I123
F0.95
tp1706
a(I2
I114
F0.95
tp1707
a(I2
I118
F0.050000000000000044
tp1708
asg21
I0
sg22
g36
sg23
I32
sg24
(lp1709
(I0
F0.0
tp1710
a(I1
F0.0
tp1711
a(I2
F0.0
tp1712
asg29
I1
sba(iState
State
p1713
(dp1714
g3
I141
sg4
g5
sg16
(lp1715
(I0
I121
I1
tp1716
a(I1
I121
F0.050000000000000044
tp1717
a(I1
I127
F0.95
tp1718
a(I2
I115
F0.95
tp1719
a(I2
I121
F0.050000000000000044
tp1720
asg21
I0
sg22
g78
sg23
I32
sg24
(lp1721
(I0
I13
tp1722
a(I1
I13
tp1723
a(I2
I13
tp1724
asg29
I1
sba(iState
State
p1725
(dp1726
g3
I142
sg4
g5
sg16
(lp1727
(I0
I121
I1
tp1728
a(I1
I121
F0.050000000000000044
tp1729
a(I1
I127
F0.95
tp1730
a(I2
I115
F0.95
tp1731
a(I2
I121
F0.050000000000000044
tp1732
asg21
I1
sg22
g78
sg23
I32
sg24
(lp1733
(I0
F0.0
tp1734
a(I1
F0.0
tp1735
a(I2
F0.0
tp1736
asg29
I1
sba(iState
State
p1737
(dp1738
g3
I143
sg4
g5
sg16
(lp1739
(I0
I123
F0.050000000000000044
tp1740
a(I0
I125
F0.95
tp1741
a(I1
I123
F0.050000000000000044
tp1742
a(I1
I128
F0.95
tp1743
a(I2
I118
F0.95
tp1744
a(I2
I123
F0.050000000000000044
tp1745
asg21
I0
sg22
g36
sg23
I32
sg24
(lp1746
(I0
F0.0
tp1747
a(I1
F0.0
tp1748
a(I2
F0.0
tp1749
asg29
I2
sba(iState
State
p1750
(dp1751
g3
I144
sg4
g5
sg16
(lp1752
(I0
I126
I1
tp1753
a(I1
I126
F0.050000000000000044
tp1754
a(I1
I132
F0.95
tp1755
a(I2
I119
F0.95
tp1756
a(I2
I126
F0.050000000000000044
tp1757
asg21
I0
sg22
g109
sg23
I32
sg24
(lp1758
(I0
I5
tp1759
a(I1
I5
tp1760
a(I2
I5
tp1761
asg29
I2
sba(iState
State
p1762
(dp1763
g3
I145
sg4
g5
sg16
(lp1764
(I0
I126
I1
tp1765
a(I1
I126
F0.050000000000000044
tp1766
a(I1
I132
F0.95
tp1767
a(I2
I119
F0.95
tp1768
a(I2
I126
F0.050000000000000044
tp1769
asg21
I1
sg22
g109
sg23
I32
sg24
(lp1770
(I0
F0.0
tp1771
a(I1
F0.0
tp1772
a(I2
F0.0
tp1773
asg29
I2
sba(iState
State
p1774
(dp1775
g3
I146
sg4
g5
sg16
(lp1776
(I0
I128
F0.050000000000000044
tp1777
a(I0
I130
F0.95
tp1778
a(I1
I128
F0.050000000000000044
tp1779
a(I1
I133
F0.95
tp1780
a(I2
I123
F0.95
tp1781
a(I2
I128
F0.050000000000000044
tp1782
asg21
I0
sg22
g36
sg23
I32
sg24
(lp1783
(I0
F0.0
tp1784
a(I1
F0.0
tp1785
a(I2
F0.0
tp1786
asg29
I3
sba(iState
State
p1787
(dp1788
g3
I147
sg4
g5
sg16
(lp1789
(I0
I131
I1
tp1790
a(I1
I131
F0.050000000000000044
tp1791
a(I1
I136
F0.95
tp1792
a(I2
I124
F0.95
tp1793
a(I2
I131
F0.050000000000000044
tp1794
asg21
I0
sg22
g140
sg23
I32
sg24
(lp1795
(I0
I11
tp1796
a(I1
I11
tp1797
a(I2
I11
tp1798
asg29
I3
sba(iState
State
p1799
(dp1800
g3
I148
sg4
g5
sg16
(lp1801
(I0
I131
I1
tp1802
a(I1
I131
F0.050000000000000044
tp1803
a(I1
I136
F0.95
tp1804
a(I2
I124
F0.95
tp1805
a(I2
I131
F0.050000000000000044
tp1806
asg21
I1
sg22
g140
sg23
I32
sg24
(lp1807
(I0
F0.0
tp1808
a(I1
F0.0
tp1809
a(I2
F0.0
tp1810
asg29
I3
sba(iState
State
p1811
(dp1812
g3
I149
sg4
g5
sg16
(lp1813
(I0
I133
F0.050000000000000044
tp1814
a(I0
I134
F0.95
tp1815
a(I1
I133
F1.0
tp1816
a(I2
I128
F0.95
tp1817
a(I2
I133
F0.050000000000000044
tp1818
asg21
I0
sg22
g36
sg23
I32
sg24
(lp1819
(I0
F0.0
tp1820
a(I1
F0.0
tp1821
a(I2
F0.0
tp1822
asg29
I4
sba(iState
State
p1823
(dp1824
g3
I150
sg4
g5
sg16
(lp1825
(I0
I135
I1
tp1826
a(I1
I135
F1.0
tp1827
a(I2
I129
F0.95
tp1828
a(I2
I135
F0.050000000000000044
tp1829
asg21
I0
sg22
g171
sg23
I32
sg24
(lp1830
(I0
I18
tp1831
a(I1
I18
tp1832
a(I2
I18
tp1833
asg29
I4
sba(iState
State
p1834
(dp1835
g3
I151
sg4
g5
sg16
(lp1836
(I0
I135
I1
tp1837
a(I1
I135
F1.0
tp1838
a(I2
I129
F0.95
tp1839
a(I2
I135
F0.050000000000000044
tp1840
asg21
I1
sg22
g171
sg23
I32
sg24
(lp1841
(I0
F0.0
tp1842
a(I1
F0.0
tp1843
a(I2
F0.0
tp1844
asg29
I4
sba(iState
State
p1845
(dp1846
g3
I152
sg4
g5
sg16
(lp1847
(I0
I137
F0.050000000000000044
tp1848
a(I0
I138
F0.95
tp1849
a(I1
I137
F0.050000000000000044
tp1850
a(I1
I140
F0.95
tp1851
a(I2
I137
F1.0
tp1852
asg21
I0
sg22
g36
sg23
I40
sg24
(lp1853
(I0
F0.0
tp1854
a(I1
F0.0
tp1855
a(I2
F0.0
tp1856
asg29
I0
sba(iState
State
p1857
(dp1858
g3
I153
sg4
g5
sg16
(lp1859
(I0
I137
F0.050000000000000044
tp1860
a(I0
I138
F0.95
tp1861
a(I1
I137
F0.050000000000000044
tp1862
a(I1
I140
F0.95
tp1863
a(I2
I137
F1.0
tp1864
asg21
I0
sg22
g109
sg23
I40
sg24
(lp1865
(I0
F0.0
tp1866
a(I1
F0.0
tp1867
a(I2
F0.0
tp1868
asg29
I0
sba(iState
State
p1869
(dp1870
g3
I154
sg4
g5
sg16
(lp1871
(I0
I137
F0.050000000000000044
tp1872
a(I0
I138
F0.95
tp1873
a(I1
I137
F0.050000000000000044
tp1874
a(I1
I140
F0.95
tp1875
a(I2
I137
F1.0
tp1876
asg21
I0
sg22
g78
sg23
I40
sg24
(lp1877
(I0
F0.0
tp1878
a(I1
F0.0
tp1879
a(I2
F0.0
tp1880
asg29
I0
sba(iState
State
p1881
(dp1882
g3
I155
sg4
g5
sg16
(lp1883
(I0
I139
I1
tp1884
a(I1
I137
F0.050000000000000044
tp1885
a(I1
I140
F0.95
tp1886
a(I2
I137
F1.0
tp1887
asg21
I0
sg22
g47
sg23
I40
sg24
(lp1888
(I0
I15
tp1889
a(I1
I15
tp1890
a(I2
I15
tp1891
asg29
I0
sba(iState
State
p1892
(dp1893
g3
I156
sg4
g5
sg16
(lp1894
(I0
I139
I1
tp1895
a(I1
I137
F0.050000000000000044
tp1896
a(I1
I140
F0.95
tp1897
a(I2
I137
F1.0
tp1898
asg21
I1
sg22
g47
sg23
I40
sg24
(lp1899
(I0
F0.0
tp1900
a(I1
F0.0
tp1901
a(I2
F0.0
tp1902
asg29
I0
sba(iState
State
p1903
(dp1904
g3
I157
sg4
g5
sg16
(lp1905
(I0
I139
I1
tp1906
a(I1
I137
F0.050000000000000044
tp1907
a(I1
I140
F0.95
tp1908
a(I2
I137
F1.0
tp1909
asg21
I0
sg22
g288
sg23
I40
sg24
(lp1910
(I0
I15
tp1911
a(I1
I15
tp1912
a(I2
I15
tp1913
asg29
I0
sba(iState
State
p1914
(dp1915
g3
I158
sg4
g5
sg16
(lp1916
(I0
I140
F0.050000000000000044
tp1917
a(I0
I141
F0.95
tp1918
a(I1
I140
F0.050000000000000044
tp1919
a(I1
I143
F0.95
tp1920
a(I2
I137
F0.95
tp1921
a(I2
I140
F0.050000000000000044
tp1922
asg21
I0
sg22
g36
sg23
I40
sg24
(lp1923
(I0
F0.0
tp1924
a(I1
F0.0
tp1925
a(I2
F0.0
tp1926
asg29
I1
sba(iState
State
p1927
(dp1928
g3
I159
sg4
g5
sg16
(lp1929
(I0
I140
F0.050000000000000044
tp1930
a(I0
I141
F0.95
tp1931
a(I1
I140
F0.050000000000000044
tp1932
a(I1
I143
F0.95
tp1933
a(I2
I137
F0.95
tp1934
a(I2
I140
F0.050000000000000044
tp1935
asg21
I0
sg22
g140
sg23
I40
sg24
(lp1936
(I0
F0.0
tp1937
a(I1
F0.0
tp1938
a(I2
F0.0
tp1939
asg29
I1
sba(iState
State
p1940
(dp1941
g3
I160
sg4
g5
sg16
(lp1942
(I0
I140
F0.050000000000000044
tp1943
a(I0
I141
F0.95
tp1944
a(I1
I140
F0.050000000000000044
tp1945
a(I1
I143
F0.95
tp1946
a(I2
I137
F0.95
tp1947
a(I2
I140
F0.050000000000000044
tp1948
asg21
I0
sg22
g109
sg23
I40
sg24
(lp1949
(I0
F0.0
tp1950
a(I1
F0.0
tp1951
a(I2
F0.0
tp1952
asg29
I1
sba(iState
State
p1953
(dp1954
g3
I161
sg4
g5
sg16
(lp1955
(I0
I142
I1
tp1956
a(I1
I140
F0.050000000000000044
tp1957
a(I1
I143
F0.95
tp1958
a(I2
I137
F0.95
tp1959
a(I2
I140
F0.050000000000000044
tp1960
asg21
I0
sg22
g78
sg23
I40
sg24
(lp1961
(I0
I13
tp1962
a(I1
I13
tp1963
a(I2
I13
tp1964
asg29
I1
sba(iState
State
p1965
(dp1966
g3
I162
sg4
g5
sg16
(lp1967
(I0
I142
I1
tp1968
a(I1
I140
F0.050000000000000044
tp1969
a(I1
I143
F0.95
tp1970
a(I2
I137
F0.95
tp1971
a(I2
I140
F0.050000000000000044
tp1972
asg21
I1
sg22
g78
sg23
I40
sg24
(lp1973
(I0
F0.0
tp1974
a(I1
F0.0
tp1975
a(I2
F0.0
tp1976
asg29
I1
sba(iState
State
p1977
(dp1978
g3
I163
sg4
g5
sg16
(lp1979
(I0
I142
I1
tp1980
a(I1
I140
F0.050000000000000044
tp1981
a(I1
I143
F0.95
tp1982
a(I2
I137
F0.95
tp1983
a(I2
I140
F0.050000000000000044
tp1984
asg21
I0
sg22
g242
sg23
I40
sg24
(lp1985
(I0
I13
tp1986
a(I1
I13
tp1987
a(I2
I13
tp1988
asg29
I1
sba(iState
State
p1989
(dp1990
g3
I164
sg4
g5
sg16
(lp1991
(I0
I140
F0.050000000000000044
tp1992
a(I0
I141
F0.95
tp1993
a(I1
I140
F0.050000000000000044
tp1994
a(I1
I143
F0.95
tp1995
a(I2
I137
F0.95
tp1996
a(I2
I140
F0.050000000000000044
tp1997
asg21
I0
sg22
g47
sg23
I40
sg24
(lp1998
(I0
F0.0
tp1999
a(I1
F0.0
tp2000
a(I2
F0.0
tp2001
asg29
I1
sba(iState
State
p2002
(dp2003
g3
I165
sg4
g5
sg16
(lp2004
(I0
I142
I1
tp2005
a(I1
I140
F0.050000000000000044
tp2006
a(I1
I143
F0.95
tp2007
a(I2
I137
F0.95
tp2008
a(I2
I140
F0.050000000000000044
tp2009
asg21
I0
sg22
g288
sg23
I40
sg24
(lp2010
(I0
I13
tp2011
a(I1
I13
tp2012
a(I2
I13
tp2013
asg29
I1
sba(iState
State
p2014
(dp2015
g3
I166
sg4
g5
sg16
(lp2016
(I0
I143
F0.050000000000000044
tp2017
a(I0
I144
F0.95
tp2018
a(I1
I143
F0.050000000000000044
tp2019
a(I1
I146
F0.95
tp2020
a(I2
I140
F0.95
tp2021
a(I2
I143
F0.050000000000000044
tp2022
asg21
I0
sg22
g36
sg23
I40
sg24
(lp2023
(I0
F0.0
tp2024
a(I1
F0.0
tp2025
a(I2
F0.0
tp2026
asg29
I2
sba(iState
State
p2027
(dp2028
g3
I167
sg4
g5
sg16
(lp2029
(I0
I143
F0.050000000000000044
tp2030
a(I0
I144
F0.95
tp2031
a(I1
I143
F0.050000000000000044
tp2032
a(I1
I146
F0.95
tp2033
a(I2
I140
F0.95
tp2034
a(I2
I143
F0.050000000000000044
tp2035
asg21
I0
sg22
g171
sg23
I40
sg24
(lp2036
(I0
F0.0
tp2037
a(I1
F0.0
tp2038
a(I2
F0.0
tp2039
asg29
I2
sba(iState
State
p2040
(dp2041
g3
I168
sg4
g5
sg16
(lp2042
(I0
I143
F0.050000000000000044
tp2043
a(I0
I144
F0.95
tp2044
a(I1
I143
F0.050000000000000044
tp2045
a(I1
I146
F0.95
tp2046
a(I2
I140
F0.95
tp2047
a(I2
I143
F0.050000000000000044
tp2048
asg21
I0
sg22
g140
sg23
I40
sg24
(lp2049
(I0
F0.0
tp2050
a(I1
F0.0
tp2051
a(I2
F0.0
tp2052
asg29
I2
sba(iState
State
p2053
(dp2054
g3
I169
sg4
g5
sg16
(lp2055
(I0
I145
I1
tp2056
a(I1
I143
F0.050000000000000044
tp2057
a(I1
I146
F0.95
tp2058
a(I2
I140
F0.95
tp2059
a(I2
I143
F0.050000000000000044
tp2060
asg21
I0
sg22
g109
sg23
I40
sg24
(lp2061
(I0
I5
tp2062
a(I1
I5
tp2063
a(I2
I5
tp2064
asg29
I2
sba(iState
State
p2065
(dp2066
g3
I170
sg4
g5
sg16
(lp2067
(I0
I145
I1
tp2068
a(I1
I143
F0.050000000000000044
tp2069
a(I1
I146
F0.95
tp2070
a(I2
I140
F0.95
tp2071
a(I2
I143
F0.050000000000000044
tp2072
asg21
I1
sg22
g109
sg23
I40
sg24
(lp2073
(I0
F0.0
tp2074
a(I1
F0.0
tp2075
a(I2
F0.0
tp2076
asg29
I2
sba(iState
State
p2077
(dp2078
g3
I171
sg4
g5
sg16
(lp2079
(I0
I145
I1
tp2080
a(I1
I143
F0.050000000000000044
tp2081
a(I1
I146
F0.95
tp2082
a(I2
I140
F0.95
tp2083
a(I2
I143
F0.050000000000000044
tp2084
asg21
I0
sg22
g365
sg23
I40
sg24
(lp2085
(I0
I5
tp2086
a(I1
I5
tp2087
a(I2
I5
tp2088
asg29
I2
sba(iState
State
p2089
(dp2090
g3
I172
sg4
g5
sg16
(lp2091
(I0
I143
F0.050000000000000044
tp2092
a(I0
I144
F0.95
tp2093
a(I1
I143
F0.050000000000000044
tp2094
a(I1
I146
F0.95
tp2095
a(I2
I140
F0.95
tp2096
a(I2
I143
F0.050000000000000044
tp2097
asg21
I0
sg22
g78
sg23
I40
sg24
(lp2098
(I0
F0.0
tp2099
a(I1
F0.0
tp2100
a(I2
F0.0
tp2101
asg29
I2
sba(iState
State
p2102
(dp2103
g3
I173
sg4
g5
sg16
(lp2104
(I0
I145
I1
tp2105
a(I1
I143
F0.050000000000000044
tp2106
a(I1
I146
F0.95
tp2107
a(I2
I140
F0.95
tp2108
a(I2
I143
F0.050000000000000044
tp2109
asg21
I0
sg22
g242
sg23
I40
sg24
(lp2110
(I0
I5
tp2111
a(I1
I5
tp2112
a(I2
I5
tp2113
asg29
I2
sba(iState
State
p2114
(dp2115
g3
I174
sg4
g5
sg16
(lp2116
(I0
I143
F0.050000000000000044
tp2117
a(I0
I144
F0.95
tp2118
a(I1
I143
F0.050000000000000044
tp2119
a(I1
I146
F0.95
tp2120
a(I2
I140
F0.95
tp2121
a(I2
I143
F0.050000000000000044
tp2122
asg21
I0
sg22
g47
sg23
I40
sg24
(lp2123
(I0
F0.0
tp2124
a(I1
F0.0
tp2125
a(I2
F0.0
tp2126
asg29
I2
sba(iState
State
p2127
(dp2128
g3
I175
sg4
g5
sg16
(lp2129
(I0
I146
F0.050000000000000044
tp2130
a(I0
I147
F0.95
tp2131
a(I1
I146
F0.050000000000000044
tp2132
a(I1
I149
F0.95
tp2133
a(I2
I143
F0.95
tp2134
a(I2
I146
F0.050000000000000044
tp2135
asg21
I0
sg22
g36
sg23
I40
sg24
(lp2136
(I0
F0.0
tp2137
a(I1
F0.0
tp2138
a(I2
F0.0
tp2139
asg29
I3
sba(iState
State
p2140
(dp2141
g3
I176
sg4
g5
sg16
(lp2142
(I0
I146
F0.050000000000000044
tp2143
a(I0
I147
F0.95
tp2144
a(I1
I146
F0.050000000000000044
tp2145
a(I1
I149
F0.95
tp2146
a(I2
I143
F0.95
tp2147
a(I2
I146
F0.050000000000000044
tp2148
asg21
I0
sg22
g171
sg23
I40
sg24
(lp2149
(I0
F0.0
tp2150
a(I1
F0.0
tp2151
a(I2
F0.0
tp2152
asg29
I3
sba(iState
State
p2153
(dp2154
g3
I177
sg4
g5
sg16
(lp2155
(I0
I148
I1
tp2156
a(I1
I146
F0.050000000000000044
tp2157
a(I1
I149
F0.95
tp2158
a(I2
I143
F0.95
tp2159
a(I2
I146
F0.050000000000000044
tp2160
asg21
I0
sg22
g140
sg23
I40
sg24
(lp2161
(I0
I11
tp2162
a(I1
I11
tp2163
a(I2
I11
tp2164
asg29
I3
sba(iState
State
p2165
(dp2166
g3
I178
sg4
g5
sg16
(lp2167
(I0
I148
I1
tp2168
a(I1
I146
F0.050000000000000044
tp2169
a(I1
I149
F0.95
tp2170
a(I2
I143
F0.95
tp2171
a(I2
I146
F0.050000000000000044
tp2172
asg21
I1
sg22
g140
sg23
I40
sg24
(lp2173
(I0
F0.0
tp2174
a(I1
F0.0
tp2175
a(I2
F0.0
tp2176
asg29
I3
sba(iState
State
p2177
(dp2178
g3
I179
sg4
g5
sg16
(lp2179
(I0
I148
I1
tp2180
a(I1
I146
F0.050000000000000044
tp2181
a(I1
I149
F0.95
tp2182
a(I2
I143
F0.95
tp2183
a(I2
I146
F0.050000000000000044
tp2184
asg21
I0
sg22
g516
sg23
I40
sg24
(lp2185
(I0
I11
tp2186
a(I1
I11
tp2187
a(I2
I11
tp2188
asg29
I3
sba(iState
State
p2189
(dp2190
g3
I180
sg4
g5
sg16
(lp2191
(I0
I146
F0.050000000000000044
tp2192
a(I0
I147
F0.95
tp2193
a(I1
I146
F0.050000000000000044
tp2194
a(I1
I149
F0.95
tp2195
a(I2
I143
F0.95
tp2196
a(I2
I146
F0.050000000000000044
tp2197
asg21
I0
sg22
g109
sg23
I40
sg24
(lp2198
(I0
F0.0
tp2199
a(I1
F0.0
tp2200
a(I2
F0.0
tp2201
asg29
I3
sba(iState
State
p2202
(dp2203
g3
I181
sg4
g5
sg16
(lp2204
(I0
I148
I1
tp2205
a(I1
I146
F0.050000000000000044
tp2206
a(I1
I149
F0.95
tp2207
a(I2
I143
F0.95
tp2208
a(I2
I146
F0.050000000000000044
tp2209
asg21
I0
sg22
g365
sg23
I40
sg24
(lp2210
(I0
I11
tp2211
a(I1
I11
tp2212
a(I2
I11
tp2213
asg29
I3
sba(iState
State
p2214
(dp2215
g3
I182
sg4
g5
sg16
(lp2216
(I0
I146
F0.050000000000000044
tp2217
a(I0
I147
F0.95
tp2218
a(I1
I146
F0.050000000000000044
tp2219
a(I1
I149
F0.95
tp2220
a(I2
I143
F0.95
tp2221
a(I2
I146
F0.050000000000000044
tp2222
asg21
I0
sg22
g78
sg23
I40
sg24
(lp2223
(I0
F0.0
tp2224
a(I1
F0.0
tp2225
a(I2
F0.0
tp2226
asg29
I3
sba(iState
State
p2227
(dp2228
g3
I183
sg4
g5
sg16
(lp2229
(I0
I149
F0.050000000000000044
tp2230
a(I0
I150
F0.95
tp2231
a(I1
I149
F1.0
tp2232
a(I2
I146
F0.95
tp2233
a(I2
I149
F0.050000000000000044
tp2234
asg21
I0
sg22
g36
sg23
I40
sg24
(lp2235
(I0
F0.0
tp2236
a(I1
F0.0
tp2237
a(I2
F0.0
tp2238
asg29
I4
sba(iState
State
p2239
(dp2240
g3
I184
sg4
g5
sg16
(lp2241
(I0
I151
I1
tp2242
a(I1
I149
F1.0
tp2243
a(I2
I146
F0.95
tp2244
a(I2
I149
F0.050000000000000044
tp2245
asg21
I0
sg22
g171
sg23
I40
sg24
(lp2246
(I0
I18
tp2247
a(I1
I18
tp2248
a(I2
I18
tp2249
asg29
I4
sba(iState
State
p2250
(dp2251
g3
I185
sg4
g5
sg16
(lp2252
(I0
I151
I1
tp2253
a(I1
I149
F1.0
tp2254
a(I2
I146
F0.95
tp2255
a(I2
I149
F0.050000000000000044
tp2256
asg21
I1
sg22
g171
sg23
I40
sg24
(lp2257
(I0
F0.0
tp2258
a(I1
F0.0
tp2259
a(I2
F0.0
tp2260
asg29
I4
sba(iState
State
p2261
(dp2262
g3
I186
sg4
g5
sg16
(lp2263
(I0
I149
F0.050000000000000044
tp2264
a(I0
I150
F0.95
tp2265
a(I1
I149
F1.0
tp2266
a(I2
I146
F0.95
tp2267
a(I2
I149
F0.050000000000000044
tp2268
asg21
I0
sg22
g140
sg23
I40
sg24
(lp2269
(I0
F0.0
tp2270
a(I1
F0.0
tp2271
a(I2
F0.0
tp2272
asg29
I4
sba(iState
State
p2273
(dp2274
g3
I187
sg4
g5
sg16
(lp2275
(I0
I151
I1
tp2276
a(I1
I149
F1.0
tp2277
a(I2
I146
F0.95
tp2278
a(I2
I149
F0.050000000000000044
tp2279
asg21
I0
sg22
g516
sg23
I40
sg24
(lp2280
(I0
I18
tp2281
a(I1
I18
tp2282
a(I2
I18
tp2283
asg29
I4
sba(iState
State
p2284
(dp2285
g3
I188
sg4
g5
sg16
(lp2286
(I0
I149
F0.050000000000000044
tp2287
a(I0
I150
F0.95
tp2288
a(I1
I149
F1.0
tp2289
a(I2
I146
F0.95
tp2290
a(I2
I149
F0.050000000000000044
tp2291
asg21
I0
sg22
g109
sg23
I40
sg24
(lp2292
(I0
F0.0
tp2293
a(I1
F0.0
tp2294
a(I2
F0.0
tp2295
asg29
I4
sba(iState
State
p2296
(dp2297
g3
I189
sg4
g5
sg16
(lp2298
(I0
I152
F0.050000000000000044
tp2299
a(I0
I155
F0.95
tp2300
a(I1
I152
F0.050000000000000044
tp2301
a(I1
I158
F0.95
tp2302
a(I2
I152
F1.0
tp2303
asg21
I0
sg22
g36
sg23
I48
sg24
(lp2304
(I0
F0.0
tp2305
a(I1
F0.0
tp2306
a(I2
F0.0
tp2307
asg29
I0
sba(iState
State
p2308
(dp2309
g3
I190
sg4
g5
sg16
(lp2310
(I0
I154
F0.050000000000000044
tp2311
a(I0
I157
F0.95
tp2312
a(I1
I154
F0.050000000000000044
tp2313
a(I1
I162
F0.95
tp2314
a(I2
I154
F1.0
tp2315
asg21
I0
sg22
g78
sg23
I48
sg24
(lp2316
(I0
F0.0
tp2317
a(I1
F0.0
tp2318
a(I2
F0.0
tp2319
asg29
I0
sba(iState
State
p2320
(dp2321
g3
I191
sg4
g5
sg16
(lp2322
(I0
I156
I1
tp2323
a(I1
I156
F0.050000000000000044
tp2324
a(I1
I164
F0.95
tp2325
a(I2
I156
F1.0
tp2326
asg21
I0
sg22
g47
sg23
I48
sg24
(lp2327
(I0
I15
tp2328
a(I1
I15
tp2329
a(I2
I15
tp2330
asg29
I0
sba(iState
State
p2331
(dp2332
g3
I192
sg4
g5
sg16
(lp2333
(I0
I156
I1
tp2334
a(I1
I156
F0.050000000000000044
tp2335
a(I1
I164
F0.95
tp2336
a(I2
I156
F1.0
tp2337
asg21
I1
sg22
g47
sg23
I48
sg24
(lp2338
(I0
F0.0
tp2339
a(I1
F0.0
tp2340
a(I2
F0.0
tp2341
asg29
I0
sba(iState
State
p2342
(dp2343
g3
I193
sg4
g5
sg16
(lp2344
(I0
I158
F0.050000000000000044
tp2345
a(I0
I161
F0.95
tp2346
a(I1
I158
F0.050000000000000044
tp2347
a(I1
I166
F0.95
tp2348
a(I2
I152
F0.95
tp2349
a(I2
I158
F0.050000000000000044
tp2350
asg21
I0
sg22
g36
sg23
I48
sg24
(lp2351
(I0
F0.0
tp2352
a(I1
F0.0
tp2353
a(I2
F0.0
tp2354
asg29
I1
sba(iState
State
p2355
(dp2356
g3
I194
sg4
g5
sg16
(lp2357
(I0
I160
F0.050000000000000044
tp2358
a(I0
I163
F0.95
tp2359
a(I1
I160
F0.050000000000000044
tp2360
a(I1
I170
F0.95
tp2361
a(I2
I153
F0.95
tp2362
a(I2
I160
F0.050000000000000044
tp2363
asg21
I0
sg22
g109
sg23
I48
sg24
(lp2364
(I0
F0.0
tp2365
a(I1
F0.0
tp2366
a(I2
F0.0
tp2367
asg29
I1
sba(iState
State
p2368
(dp2369
g3
I195
sg4
g5
sg16
(lp2370
(I0
I162
I1
tp2371
a(I1
I162
F0.050000000000000044
tp2372
a(I1
I172
F0.95
tp2373
a(I2
I154
F0.95
tp2374
a(I2
I162
F0.050000000000000044
tp2375
asg21
I0
sg22
g78
sg23
I48
sg24
(lp2376
(I0
I13
tp2377
a(I1
I13
tp2378
a(I2
I13
tp2379
asg29
I1
sba(iState
State
p2380
(dp2381
g3
I196
sg4
g5
sg16
(lp2382
(I0
I162
I1
tp2383
a(I1
I162
F0.050000000000000044
tp2384
a(I1
I172
F0.95
tp2385
a(I2
I154
F0.95
tp2386
a(I2
I162
F0.050000000000000044
tp2387
asg21
I1
sg22
g78
sg23
I48
sg24
(lp2388
(I0
F0.0
tp2389
a(I1
F0.0
tp2390
a(I2
F0.0
tp2391
asg29
I1
sba(iState
State
p2392
(dp2393
g3
I197
sg4
g5
sg16
(lp2394
(I0
I164
F0.050000000000000044
tp2395
a(I0
I165
F0.95
tp2396
a(I1
I164
F0.050000000000000044
tp2397
a(I1
I174
F0.95
tp2398
a(I2
I156
F0.95
tp2399
a(I2
I164
F0.050000000000000044
tp2400
asg21
I0
sg22
g47
sg23
I48
sg24
(lp2401
(I0
F0.0
tp2402
a(I1
F0.0
tp2403
a(I2
F0.0
tp2404
asg29
I1
sba(iState
State
p2405
(dp2406
g3
I198
sg4
g5
sg16
(lp2407
(I0
I166
F0.050000000000000044
tp2408
a(I0
I169
F0.95
tp2409
a(I1
I166
F0.050000000000000044
tp2410
a(I1
I175
F0.95
tp2411
a(I2
I158
F0.95
tp2412
a(I2
I166
F0.050000000000000044
tp2413
asg21
I0
sg22
g36
sg23
I48
sg24
(lp2414
(I0
F0.0
tp2415
a(I1
F0.0
tp2416
a(I2
F0.0
tp2417
asg29
I2
sba(iState
State
p2418
(dp2419
g3
I199
sg4
g5
sg16
(lp2420
(I0
I168
F0.050000000000000044
tp2421
a(I0
I171
F0.95
tp2422
a(I1
I168
F0.050000000000000044
tp2423
a(I1
I178
F0.95
tp2424
a(I2
I159
F0.95
tp2425
a(I2
I168
F0.050000000000000044
tp2426
asg21
I0
sg22
g140
sg23
I48
sg24
(lp2427
(I0
F0.0
tp2428
a(I1
F0.0
tp2429
a(I2
F0.0
tp2430
asg29
I2
sba(iState
State
p2431
(dp2432
g3
I200
sg4
g5
sg16
(lp2433
(I0
I170
I1
tp2434
a(I1
I170
F0.050000000000000044
tp2435
a(I1
I180
F0.95
tp2436
a(I2
I160
F0.95
tp2437
a(I2
I170
F0.050000000000000044
tp2438
asg21
I0
sg22
g109
sg23
I48
sg24
(lp2439
(I0
I5
tp2440
a(I1
I5
tp2441
a(I2
I5
tp2442
asg29
I2
sba(iState
State
p2443
(dp2444
g3
I201
sg4
g5
sg16
(lp2445
(I0
I170
I1
tp2446
a(I1
I170
F0.050000000000000044
tp2447
a(I1
I180
F0.95
tp2448
a(I2
I160
F0.95
tp2449
a(I2
I170
F0.050000000000000044
tp2450
asg21
I1
sg22
g109
sg23
I48
sg24
(lp2451
(I0
F0.0
tp2452
a(I1
F0.0
tp2453
a(I2
F0.0
tp2454
asg29
I2
sba(iState
State
p2455
(dp2456
g3
I202
sg4
g5
sg16
(lp2457
(I0
I172
F0.050000000000000044
tp2458
a(I0
I173
F0.95
tp2459
a(I1
I172
F0.050000000000000044
tp2460
a(I1
I182
F0.95
tp2461
a(I2
I162
F0.95
tp2462
a(I2
I172
F0.050000000000000044
tp2463
asg21
I0
sg22
g78
sg23
I48
sg24
(lp2464
(I0
F0.0
tp2465
a(I1
F0.0
tp2466
a(I2
F0.0
tp2467
asg29
I2
sba(iState
State
p2468
(dp2469
g3
I203
sg4
g5
sg16
(lp2470
(I0
I175
F0.050000000000000044
tp2471
a(I0
I177
F0.95
tp2472
a(I1
I175
F0.050000000000000044
tp2473
a(I1
I183
F0.95
tp2474
a(I2
I166
F0.95
tp2475
a(I2
I175
F0.050000000000000044
tp2476
asg21
I0
sg22
g36
sg23
I48
sg24
(lp2477
(I0
F0.0
tp2478
a(I1
F0.0
tp2479
a(I2
F0.0
tp2480
asg29
I3
sba(iState
State
p2481
(dp2482
g3
I204
sg4
g5
sg16
(lp2483
(I0
I176
F0.050000000000000044
tp2484
a(I0
I179
F0.95
tp2485
a(I1
I176
F0.050000000000000044
tp2486
a(I1
I185
F0.95
tp2487
a(I2
I167
F0.95
tp2488
a(I2
I176
F0.050000000000000044
tp2489
asg21
I0
sg22
g171
sg23
I48
sg24
(lp2490
(I0
F0.0
tp2491
a(I1
F0.0
tp2492
a(I2
F0.0
tp2493
asg29
I3
sba(iState
State
p2494
(dp2495
g3
I205
sg4
g5
sg16
(lp2496
(I0
I178
I1
tp2497
a(I1
I178
F0.050000000000000044
tp2498
a(I1
I186
F0.95
tp2499
a(I2
I168
F0.95
tp2500
a(I2
I178
F0.050000000000000044
tp2501
asg21
I0
sg22
g140
sg23
I48
sg24
(lp2502
(I0
I11
tp2503
a(I1
I11
tp2504
a(I2
I11
tp2505
asg29
I3
sba(iState
State
p2506
(dp2507
g3
I206
sg4
g5
sg16
(lp2508
(I0
I178
I1
tp2509
a(I1
I178
F0.050000000000000044
tp2510
a(I1
I186
F0.95
tp2511
a(I2
I168
F0.95
tp2512
a(I2
I178
F0.050000000000000044
tp2513
asg21
I1
sg22
g140
sg23
I48
sg24
(lp2514
(I0
F0.0
tp2515
a(I1
F0.0
tp2516
a(I2
F0.0
tp2517
asg29
I3
sba(iState
State
p2518
(dp2519
g3
I207
sg4
g5
sg16
(lp2520
(I0
I180
F0.050000000000000044
tp2521
a(I0
I181
F0.95
tp2522
a(I1
I180
F0.050000000000000044
tp2523
a(I1
I188
F0.95
tp2524
a(I2
I170
F0.95
tp2525
a(I2
I180
F0.050000000000000044
tp2526
asg21
I0
sg22
g109
sg23
I48
sg24
(lp2527
(I0
F0.0
tp2528
a(I1
F0.0
tp2529
a(I2
F0.0
tp2530
asg29
I3
sba(iState
State
p2531
(dp2532
g3
I208
sg4
g5
sg16
(lp2533
(I0
I183
F0.050000000000000044
tp2534
a(I0
I184
F0.95
tp2535
a(I1
I183
F1.0
tp2536
a(I2
I175
F0.95
tp2537
a(I2
I183
F0.050000000000000044
tp2538
asg21
I0
sg22
g36
sg23
I48
sg24
(lp2539
(I0
F0.0
tp2540
a(I1
F0.0
tp2541
a(I2
F0.0
tp2542
asg29
I4
sba(iState
State
p2543
(dp2544
g3
I209
sg4
g5
sg16
(lp2545
(I0
I185
I1
tp2546
a(I1
I185
F1.0
tp2547
a(I2
I176
F0.95
tp2548
a(I2
I185
F0.050000000000000044
tp2549
asg21
I0
sg22
g171
sg23
I48
sg24
(lp2550
(I0
I18
tp2551
a(I1
I18
tp2552
a(I2
I18
tp2553
asg29
I4
sba(iState
State
p2554
(dp2555
g3
I210
sg4
g5
sg16
(lp2556
(I0
I185
I1
tp2557
a(I1
I185
F1.0
tp2558
a(I2
I176
F0.95
tp2559
a(I2
I185
F0.050000000000000044
tp2560
asg21
I1
sg22
g171
sg23
I48
sg24
(lp2561
(I0
F0.0
tp2562
a(I1
F0.0
tp2563
a(I2
F0.0
tp2564
asg29
I4
sba(iState
State
p2565
(dp2566
g3
I211
sg4
g5
sg16
(lp2567
(I0
I186
F0.050000000000000044
tp2568
a(I0
I187
F0.95
tp2569
a(I1
I186
F1.0
tp2570
a(I2
I178
F0.95
tp2571
a(I2
I186
F0.050000000000000044
tp2572
asg21
I0
sg22
g140
sg23
I48
sg24
(lp2573
(I0
F0.0
tp2574
a(I1
F0.0
tp2575
a(I2
F0.0
tp2576
asg29
I4
sba(iState
State
p2577
(dp2578
g3
I212
sg4
g5
sg16
(lp2579
(I0
I189
F0.050000000000000044
tp2580
a(I0
I191
F0.95
tp2581
a(I1
I189
F0.050000000000000044
tp2582
a(I1
I193
F0.95
tp2583
a(I2
I189
F1.0
tp2584
asg21
I0
sg22
g36
sg23
I56
sg24
(lp2585
(I0
F0.0
tp2586
a(I1
F0.0
tp2587
a(I2
F0.0
tp2588
asg29
I0
sba(iState
State
p2589
(dp2590
g3
I213
sg4
g5
sg16
(lp2591
(I0
I192
I1
tp2592
a(I1
I192
F0.050000000000000044
tp2593
a(I1
I197
F0.95
tp2594
a(I2
I192
F1.0
tp2595
asg21
I0
sg22
g47
sg23
I56
sg24
(lp2596
(I0
I15
tp2597
a(I1
I15
tp2598
a(I2
I15
tp2599
asg29
I0
sba(iState
State
p2600
(dp2601
g3
I214
sg4
g5
sg16
(lp2602
(I0
I193
F0.050000000000000044
tp2603
a(I0
I195
F0.95
tp2604
a(I1
I193
F0.050000000000000044
tp2605
a(I1
I198
F0.95
tp2606
a(I2
I189
F0.95
tp2607
a(I2
I193
F0.050000000000000044
tp2608
asg21
I0
sg22
g36
sg23
I56
sg24
(lp2609
(I0
F0.0
tp2610
a(I1
F0.0
tp2611
a(I2
F0.0
tp2612
asg29
I1
sba(iState
State
p2613
(dp2614
g3
I215
sg4
g5
sg16
(lp2615
(I0
I196
I1
tp2616
a(I1
I196
F0.050000000000000044
tp2617
a(I1
I202
F0.95
tp2618
a(I2
I190
F0.95
tp2619
a(I2
I196
F0.050000000000000044
tp2620
asg21
I0
sg22
g78
sg23
I56
sg24
(lp2621
(I0
I13
tp2622
a(I1
I13
tp2623
a(I2
I13
tp2624
asg29
I1
sba(iState
State
p2625
(dp2626
g3
I216
sg4
g5
sg16
(lp2627
(I0
I198
F0.050000000000000044
tp2628
a(I0
I200
F0.95
tp2629
a(I1
I198
F0.050000000000000044
tp2630
a(I1
I203
F0.95
tp2631
a(I2
I193
F0.95
tp2632
a(I2
I198
F0.050000000000000044
tp2633
asg21
I0
sg22
g36
sg23
I56
sg24
(lp2634
(I0
F0.0
tp2635
a(I1
F0.0
tp2636
a(I2
F0.0
tp2637
asg29
I2
sba(iState
State
p2638
(dp2639
g3
I217
sg4
g5
sg16
(lp2640
(I0
I201
I1
tp2641
a(I1
I201
F0.050000000000000044
tp2642
a(I1
I207
F0.95
tp2643
a(I2
I194
F0.95
tp2644
a(I2
I201
F0.050000000000000044
tp2645
asg21
I0
sg22
g109
sg23
I56
sg24
(lp2646
(I0
I5
tp2647
a(I1
I5
tp2648
a(I2
I5
tp2649
asg29
I2
sba(iState
State
p2650
(dp2651
g3
I218
sg4
g5
sg16
(lp2652
(I0
I203
F0.050000000000000044
tp2653
a(I0
I205
F0.95
tp2654
a(I1
I203
F0.050000000000000044
tp2655
a(I1
I208
F0.95
tp2656
a(I2
I198
F0.95
tp2657
a(I2
I203
F0.050000000000000044
tp2658
asg21
I0
sg22
g36
sg23
I56
sg24
(lp2659
(I0
F0.0
tp2660
a(I1
F0.0
tp2661
a(I2
F0.0
tp2662
asg29
I3
sba(iState
State
p2663
(dp2664
g3
I219
sg4
g5
sg16
(lp2665
(I0
I206
I1
tp2666
a(I1
I206
F0.050000000000000044
tp2667
a(I1
I211
F0.95
tp2668
a(I2
I199
F0.95
tp2669
a(I2
I206
F0.050000000000000044
tp2670
asg21
I0
sg22
g140
sg23
I56
sg24
(lp2671
(I0
I11
tp2672
a(I1
I11
tp2673
a(I2
I11
tp2674
asg29
I3
sba(iState
State
p2675
(dp2676
g3
I220
sg4
g5
sg16
(lp2677
(I0
I208
F0.050000000000000044
tp2678
a(I0
I209
F0.95
tp2679
a(I1
I208
F1.0
tp2680
a(I2
I203
F0.95
tp2681
a(I2
I208
F0.050000000000000044
tp2682
asg21
I0
sg22
g36
sg23
I56
sg24
(lp2683
(I0
F0.0
tp2684
a(I1
F0.0
tp2685
a(I2
F0.0
tp2686
asg29
I4
sba(iState
State
p2687
(dp2688
g3
I221
sg4
g5
sg16
(lp2689
(I0
I210
I1
tp2690
a(I1
I210
F1.0
tp2691
a(I2
I204
F0.95
tp2692
a(I2
I210
F0.050000000000000044
tp2693
asg21
I0
sg22
g171
sg23
I56
sg24
(lp2694
(I0
I18
tp2695
a(I1
I18
tp2696
a(I2
I18
tp2697
asg29
I4
sba(iState
State
p2698
(dp2699
g3
I222
sg4
g5
sg16
(lp2700
(I0
I212
F0.050000000000000044
tp2701
a(I0
I213
F0.95
tp2702
a(I1
I212
F0.050000000000000044
tp2703
a(I1
I214
F0.95
tp2704
a(I2
I212
F1.0
tp2705
asg21
I0
sg22
g36
sg23
I64
sg24
(lp2706
(I0
F0.0
tp2707
a(I1
F0.0
tp2708
a(I2
F0.0
tp2709
asg29
I0
sba(iState
State
p2710
(dp2711
g3
I223
sg4
g5
sg16
(lp2712
(I0
I214
F0.050000000000000044
tp2713
a(I0
I215
F0.95
tp2714
a(I1
I214
F0.050000000000000044
tp2715
a(I1
I216
F0.95
tp2716
a(I2
I212
F0.95
tp2717
a(I2
I214
F0.050000000000000044
tp2718
asg21
I0
sg22
g36
sg23
I64
sg24
(lp2719
(I0
F0.0
tp2720
a(I1
F0.0
tp2721
a(I2
F0.0
tp2722
asg29
I1
sba(iState
State
p2723
(dp2724
g3
I224
sg4
g5
sg16
(lp2725
(I0
I216
F0.050000000000000044
tp2726
a(I0
I217
F0.95
tp2727
a(I1
I216
F0.050000000000000044
tp2728
a(I1
I218
F0.95
tp2729
a(I2
I214
F0.95
tp2730
a(I2
I216
F0.050000000000000044
tp2731
asg21
I0
sg22
g36
sg23
I64
sg24
(lp2732
(I0
F0.0
tp2733
a(I1
F0.0
tp2734
a(I2
F0.0
tp2735
asg29
I2
sba(iState
State
p2736
(dp2737
g3
I225
sg4
g5
sg16
(lp2738
(I0
I218
F0.050000000000000044
tp2739
a(I0
I219
F0.95
tp2740
a(I1
I218
F0.050000000000000044
tp2741
a(I1
I220
F0.95
tp2742
a(I2
I216
F0.95
tp2743
a(I2
I218
F0.050000000000000044
tp2744
asg21
I0
sg22
g36
sg23
I64
sg24
(lp2745
(I0
F0.0
tp2746
a(I1
F0.0
tp2747
a(I2
F0.0
tp2748
asg29
I3
sba(iState
State
p2749
(dp2750
g3
I226
sg4
g5
sg16
(lp2751
(I0
I220
F0.050000000000000044
tp2752
a(I0
I221
F0.95
tp2753
a(I1
I220
F1.0
tp2754
a(I2
I218
F0.95
tp2755
a(I2
I220
F0.050000000000000044
tp2756
asg21
I0
sg22
g36
sg23
I64
sg24
(lp2757
(I0
F0.0
tp2758
a(I1
F0.0
tp2759
a(I2
F0.0
tp2760
asg29
I4
sba.(lp0
(iAction
Action
p1
(dp2
S'index'
p3
I0
sS'name'
p4
S'Inspect'
p5
sba(iAction
Action
p6
(dp7
g3
I1
sg4
S'Next'
p8
sba(iAction
Action
p9
(dp10
g3
I2
sg4
S'Previous'
p11
sba.(lp0
(I0
I0
I1
tp1
a(I1
I0
I1
tp2
a(I2
I0
I1
tp3
a.(lp0
(I0
F0.0
tp1
a(I1
F0.0
tp2
a(I2
F0.0
tp3
a.(lp0
(I0
I0
I1
tp1
a(I1
I0
I1
tp2
a(I2
I0
I1
tp3
a.(lp0
(I0
F0.0
tp1
a(I1
F0.0
tp2
a(I2
F0.0
tp3
a.(lp0
(I0
I0
I1
tp1
a(I1
I0
I1
tp2
a(I2
I0
I1
tp3
a.(lp0
(I0
I15
tp1
a(I1
I15
tp2
a(I2
I15
tp3
a.(lp0
(I0
I0
I1
tp1
a(I1
I0
I1
tp2
a(I2
I0
I1
tp3
a.(lp0
(I0
F0.0
tp1
a(I1
F0.0
tp2
a(I2
F0.0
tp3
a.(lp0
(I0
I0
I1
tp1
a(I1
I0
I1
tp2
a(I2
I0
I1
tp3
a.(lp0
(I0
F0.0
tp1
a(I1
F0.0
tp2
a(I2
F0.0
tp3
a.(lp0
(I0
I0
I1
tp1
a(I1
I0
I1
tp2
a(I2
I0
I1
tp3
a.(lp0
(I0
I13
tp1
a(I1
I13
tp2
a(I2
I13
tp3
a.(lp0
(I0
I0
I1
tp1
a(I1
I0
I1
tp2
a(I2
I0
I1
tp3
a.(lp0
(I0
F0.0
tp1
a(I1
F0.0
tp2
a(I2
F0.0
tp3
a.(lp0
(I0
I0
I1
tp1
a(I1
I0
I1
tp2
a(I2
I0
I1
tp3
a.(lp0
(I0
F0.0
tp1
a(I1
F0.0
tp2
a(I2
F0.0
tp3
a.(lp0
(I0
I0
I1
tp1
a(I1
I0
I1
tp2
a(I2
I0
I1
tp3
a.(lp0
(I0
I5
tp1
a(I1
I5
tp2
a(I2
I5
tp3
a.(lp0
(I0
I0
I1
tp1
a(I1
I0
I1
tp2
a(I2
I0
I1
tp3
a.(lp0
(I0
F0.0
tp1
a(I1
F0.0
tp2
a(I2
F0.0
tp3
a.(lp0
(I0
I0
I1
tp1
a(I1
I0
I1
tp2
a(I2
I0
I1
tp3
a.(lp0
(I0
F0.0
tp1
a(I1
F0.0
tp2
a(I2
F0.0
tp3
a.(lp0
(I0
I0
I1
tp1
a(I1
I0
I1
tp2
a(I2
I0
I1
tp3
a.(lp0
(I0
I11
tp1
a(I1
I11
tp2
a(I2
I11
tp3
a.(lp0
(I0
I0
I1
tp1
a(I1
I0
I1
tp2
a(I2
I0
I1
tp3
a.(lp0
(I0
F0.0
tp1
a(I1
F0.0
tp2
a(I2
F0.0
tp3
a.(lp0
(I0
I0
I1
tp1
a(I1
I0
I1
tp2
a(I2
I0
I1
tp3
a.(lp0
(I0
F0.0
tp1
a(I1
F0.0
tp2
a(I2
F0.0
tp3
a.(lp0
(I0
I0
I1
tp1
a(I1
I0
I1
tp2
a(I2
I0
I1
tp3
a.(lp0
(I0
I18
tp1
a(I1
I18
tp2
a(I2
I18
tp3
a.(lp0
(I0
I0
I1
tp1
a(I1
I0
I1
tp2
a(I2
I0
I1
tp3
a.(lp0
(I0
F0.0
tp1
a(I1
F0.0
tp2
a(I2
F0.0
tp3
a.(lp0
(I0
I1
F0.050000000000000044
tp1
a(I0
I2
F0.95
tp2
a(I1
I1
F0.050000000000000044
tp3
a(I1
I4
F0.95
tp4
a(I2
I1
F1.0
tp5
a.(lp0
(I0
F0.0
tp1
a(I1
F0.0
tp2
a(I2
F0.0
tp3
a.(lp0
(I0
I1
F0.050000000000000044
tp1
a(I0
I2
F0.95
tp2
a(I1
I1
F0.050000000000000044
tp3
a(I1
I4
F0.95
tp4
a(I2
I1
F1.0
tp5
a.(lp0
(I0
F0.0
tp1
a(I1
F0.0
tp2
a(I2
F0.0
tp3
a.(lp0
(I0
I1
F0.050000000000000044
tp1
a(I0
I2
F0.95
tp2
a(I1
I1
F0.050000000000000044
tp3
a(I1
I4
F0.95
tp4
a(I2
I1
F1.0
tp5
a.(lp0
(I0
F0.0
tp1
a(I1
F0.0
tp2
a(I2
F0.0
tp3
a.(lp0
(I0
I1
F0.050000000000000044
tp1
a(I0
I2
F0.95
tp2
a(I1
I1
F0.050000000000000044
tp3
a(I1
I4
F0.95
tp4
a(I2
I1
F1.0
tp5
a.(lp0
(I0
F0.0
tp1
a(I1
F0.0
tp2
a(I2
F0.0
tp3
a.(lp0
(I0
I1
F0.050000000000000044
tp1
a(I0
I2
F0.95
tp2
a(I1
I1
F0.050000000000000044
tp3
a(I1
I4
F0.95
tp4
a(I2
I1
F1.0
tp5
a.(lp0
(I0
F0.0
tp1
a(I1
F0.0
tp2
a(I2
F0.0
tp3
a.(lp0
(I0
I3
I1
tp1
a(I1
I1
F0.050000000000000044
tp2
a(I1
I4
F0.95
tp3
a(I2
I1
F1.0
tp4
a.(lp0
(I0
I15
tp1
a(I1
I15
tp2
a(I2
I15
tp3
a.(lp0
(I0
I3
I1
tp1
a(I1
I1
F0.050000000000000044
tp2
a(I1
I4
F0.95
tp3
a(I2
I1
F1.0
tp4
a.(lp0
(I0
F0.0
tp1
a(I1
F0.0
tp2
a(I2
F0.0
tp3
a.(lp0
(I0
I3
I1
tp1
a(I1
I1
F0.050000000000000044
tp2
a(I1
I4
F0.95
tp3
a(I2
I1
F1.0
tp4
a.(lp0
(I0
I15
tp1
a(I1
I15
tp2
a(I2
I15
tp3
a.(lp0
(I0
I3
I1
tp1
a(I1
I1
F0.050000000000000044
tp2
a(I1
I4
F0.95
tp3
a(I2
I1
F1.0
tp4
a.(lp0
(I0
I15
tp1
a(I1
I15
tp2
a(I2
I15
tp3
a.(lp0
(I0
I3
I1
tp1
a(I1
I1
F0.050000000000000044
tp2
a(I1
I4
F0.95
tp3
a(I2
I1
F1.0
tp4
a.(lp0
(I0
F0.0
tp1
a(I1
F0.0
tp2
a(I2
F0.0
tp3
a.(lp0
(I0
I4
F0.050000000000000044
tp1
a(I0
I5
F0.95
tp2
a(I1
I4
F0.050000000000000044
tp3
a(I1
I7
F0.95
tp4
a(I2
I1
F0.95
tp5
a(I2
I4
F0.050000000000000044
tp6
a.(lp0
(I0
F0.0
tp1
a(I1
F0.0
tp2
a(I2
F0.0
tp3
a.(lp0
(I0
I4
F0.050000000000000044
tp1
a(I0
I5
F0.95
tp2
a(I1
I4
F0.050000000000000044
tp3
a(I1
I7
F0.95
tp4
a(I2
I1
F0.95
tp5
a(I2
I4
F0.050000000000000044
tp6
a.(lp0
(I0
F0.0
tp1
a(I1
F0.0
tp2
a(I2
F0.0
tp3
a.(lp0
(I0
I4
F0.050000000000000044
tp1
a(I0
I5
F0.95
tp2
a(I1
I4
F0.050000000000000044
tp3
a(I1
I7
F0.95
tp4
a(I2
I1
F0.95
tp5
a(I2
I4
F0.050000000000000044
tp6
a.(lp0
(I0
F0.0
tp1
a(I1
F0.0
tp2
a(I2
F0.0
tp3
a.(lp0
(I0
I4
F0.050000000000000044
tp1
a(I0
I5
F0.95
tp2
a(I1
I4
F0.050000000000000044
tp3
a(I1
I7
F0.95
tp4
a(I2
I1
F0.95
tp5
a(I2
I4
F0.050000000000000044
tp6
a.(lp0
(I0
F0.0
tp1
a(I1
F0.0
tp2
a(I2
F0.0
tp3
a.(lp0
(I0
I4
F0.050000000000000044
tp1
a(I0
I5
F0.95
tp2
a(I1
I4
F0.050000000000000044
tp3
a(I1
I7
F0.95
tp4
a(I2
I1
F0.95
tp5
a(I2
I4
F0.050000000000000044
tp6
a.(lp0
(I0
F0.0
tp1
a(I1
F0.0
tp2
a(I2
F0.0
tp3
a.(lp0
(I0
I6
I1
tp1
a(I1
I4
F0.050000000000000044
tp2
a(I1
I7
F0.95
tp3
a(I2
I1
F0.95
tp4
a(I2
I4
F0.050000000000000044
tp5
a.(lp0
(I0
I13
tp1
a(I1
I13
tp2
a(I2
I13
tp3
a.(lp0
(I0
I6
I1
tp1
a(I1
I4
F0.050000000000000044
tp2
a(I1
I7
F0.95
tp3
a(I2
I1
F0.95
tp4
a(I2
I4
F0.050000000000000044
tp5
a.(lp0
(I0
F0.0
tp1
a(I1
F0.0
tp2
a(I2
F0.0
tp3
a.(lp0
(I0
I6
I1
tp1
a(I1
I4
F0.050000000000000044
tp2
a(I1
I7
F0.95
tp3
a(I2
I1
F0.95
tp4
a(I2
I4
F0.050000000000000044
tp5
a.(lp0
(I0
I13
tp1
a(I1
I13
tp2
a(I2
I13
tp3
a.(lp0
(I0
I6
I1
tp1
a(I1
I4
F0.050000000000000044
tp2
a(I1
I7
F0.95
tp3
a(I2
I1
F0.95
tp4
a(I2
I4
F0.050000000000000044
tp5
a.(lp0
(I0
I13
tp1
a(I1
I13
tp2
a(I2
I13
tp3
a.(lp0
(I0
I6
I1
tp1
a(I1
I4
F0.050000000000000044
tp2
a(I1
I7
F0.95
tp3
a(I2
I1
F0.95
tp4
a(I2
I4
F0.050000000000000044
tp5
a.(lp0
(I0
F0.0
tp1
a(I1
F0.0
tp2
a(I2
F0.0
tp3
a.(lp0
(I0
I4
F0.050000000000000044
tp1
a(I0
I5
F0.95
tp2
a(I1
I4
F0.050000000000000044
tp3
a(I1
I7
F0.95
tp4
a(I2
I1
F0.95
tp5
a(I2
I4
F0.050000000000000044
tp6
a.(lp0
(I0
F0.0
tp1
a(I1
F0.0
tp2
a(I2
F0.0
tp3
a.(lp0
(I0
I6
I1
tp1
a(I1
I4
F0.050000000000000044
tp2
a(I1
I7
F0.95
tp3
a(I2
I1
F0.95
tp4
a(I2
I4
F0.050000000000000044
tp5
a.(lp0
(I0
I13
tp1
a(I1
I13
tp2
a(I2
I13
tp3
a.(lp0
(I0
I6
I1
tp1
a(I1
I4
F0.050000000000000044
tp2
a(I1
I7
F0.95
tp3
a(I2
I1
F0.95
tp4
a(I2
I4
F0.050000000000000044
tp5
a.(lp0
(I0
F0.0
tp1
a(I1
F0.0
tp2
a(I2
F0.0
tp3
a.(lp0
(I0
I7
F0.050000000000000044
tp1
a(I0
I8
F0.95
tp2
a(I1
I7
F0.050000000000000044
tp3
a(I1
I10
F0.95
tp4
a(I2
I4
F0.95
tp5
a(I2
I7
F0.050000000000000044
tp6
a.(lp0
(I0
F0.0
tp1
a(I1
F0.0
tp2
a(I2
F0.0
tp3
a.(lp0
(I0
I7
F0.050000000000000044
tp1
a(I0
I8
F0.95
tp2
a(I1
I7
F0.050000000000000044
tp3
a(I1
I10
F0.95
tp4
a(I2
I4
F0.95
tp5
a(I2
I7
F0.050000000000000044
tp6
a.(lp0
(I0
F0.0
tp1
a(I1
F0.0
tp2
a(I2
F0.0
tp3
a.(lp0
(I0
I7
F0.050000000000000044
tp1
a(I0
I8
F0.95
tp2
a(I1
I7
F0.050000000000000044
tp3
a(I1
I10
F0.95
tp4
a(I2
I4
F0.95
tp5
a(I2
I7
F0.050000000000000044
tp6
a.(lp0
(I0
F0.0
tp1
a(I1
F0.0
tp2
a(I2
F0.0
tp3
a.(lp0
(I0
I7
F0.050000000000000044
tp1
a(I0
I8
F0.95
tp2
a(I1
I7
F0.050000000000000044
tp3
a(I1
I10
F0.95
tp4
a(I2
I4
F0.95
tp5
a(I2
I7
F0.050000000000000044
tp6
a.(lp0
(I0
F0.0
tp1
a(I1
F0.0
tp2
a(I2
F0.0
tp3
a.(lp0
(I0
I9
I1
tp1
a(I1
I7
F0.050000000000000044
tp2
a(I1
I10
F0.95
tp3
a(I2
I4
F0.95
tp4
a(I2
I7
F0.050000000000000044
tp5
a.(lp0
(I0
I5
tp1
a(I1
I5
tp2
a(I2
I5
tp3
a.(lp0
(I0
I9
I1
tp1
a(I1
I7
F0.050000000000000044
tp2
a(I1
I10
F0.95
tp3
a(I2
I4
F0.95
tp4
a(I2
I7
F0.050000000000000044
tp5
a.(lp0
(I0
F0.0
tp1
a(I1
F0.0
tp2
a(I2
F0.0
tp3
a.(lp0
(I0
I9
I1
tp1
a(I1
I7
F0.050000000000000044
tp2
a(I1
I10
F0.95
tp3
a(I2
I4
F0.95
tp4
a(I2
I7
F0.050000000000000044
tp5
a.(lp0
(I0
I5
tp1
a(I1
I5
tp2
a(I2
I5
tp3
a.(lp0
(I0
I9
I1
tp1
a(I1
I7
F0.050000000000000044
tp2
a(I1
I10
F0.95
tp3
a(I2
I4
F0.95
tp4
a(I2
I7
F0.050000000000000044
tp5
a.(lp0
(I0
I5
tp1
a(I1
I5
tp2
a(I2
I5
tp3
a.(lp0
(I0
I9
I1
tp1
a(I1
I7
F0.050000000000000044
tp2
a(I1
I10
F0.95
tp3
a(I2
I4
F0.95
tp4
a(I2
I7
F0.050000000000000044
tp5
a.(lp0
(I0
F0.0
tp1
a(I1
F0.0
tp2
a(I2
F0.0
tp3
a.(lp0
(I0
I7
F0.050000000000000044
tp1
a(I0
I8
F0.95
tp2
a(I1
I7
F0.050000000000000044
tp3
a(I1
I10
F0.95
tp4
a(I2
I4
F0.95
tp5
a(I2
I7
F0.050000000000000044
tp6
a.(lp0
(I0
F0.0
tp1
a(I1
F0.0
tp2
a(I2
F0.0
tp3
a.(lp0
(I0
I9
I1
tp1
a(I1
I7
F0.050000000000000044
tp2
a(I1
I10
F0.95
tp3
a(I2
I4
F0.95
tp4
a(I2
I7
F0.050000000000000044
tp5
a.(lp0
(I0
I5
tp1
a(I1
I5
tp2
a(I2
I5
tp3
a.(lp0
(I0
I9
I1
tp1
a(I1
I7
F0.050000000000000044
tp2
a(I1
I10
F0.95
tp3
a(I2
I4
F0.95
tp4
a(I2
I7
F0.050000000000000044
tp5
a.(lp0
(I0
F0.0
tp1
a(I1
F0.0
tp2
a(I2
F0.0
tp3
a.(lp0
(I0
I7
F0.050000000000000044
tp1
a(I0
I8
F0.95
tp2
a(I1
I7
F0.050000000000000044
tp3
a(I1
I10
F0.95
tp4
a(I2
I4
F0.95
tp5
a(I2
I7
F0.050000000000000044
tp6
a.(lp0
(I0
F0.0
tp1
a(I1
F0.0
tp2
a(I2
F0.0
tp3
a.(lp0
(I0
I9
I1
tp1
a(I1
I7
F0.050000000000000044
tp2
a(I1
I10
F0.95
tp3
a(I2
I4
F0.95
tp4
a(I2
I7
F0.050000000000000044
tp5
a.(lp0
(I0
I5
tp1
a(I1
I5
tp2
a(I2
I5
tp3
a.(lp0
(I0
I7
F0.050000000000000044
tp1
a(I0
I8
F0.95
tp2
a(I1
I7
F0.050000000000000044
tp3
a(I1
I10
F0.95
tp4
a(I2
I4
F0.95
tp5
a(I2
I7
F0.050000000000000044
tp6
a.(lp0
(I0
F0.0
tp1
a(I1
F0.0
tp2
a(I2
F0.0
tp3
a.(lp0
(I0
I10
F0.050000000000000044
tp1
a(I0
I11
F0.95
tp2
a(I1
I10
F0.050000000000000044
tp3
a(I1
I13
F0.95
tp4
a(I2
I7
F0.95
tp5
a(I2
I10
F0.050000000000000044
tp6
a.(lp0
(I0
F0.0
tp1
a(I1
F0.0
tp2
a(I2
F0.0
tp3
a.(lp0
(I0
I10
F0.050000000000000044
tp1
a(I0
I11
F0.95
tp2
a(I1
I10
F0.050000000000000044
tp3
a(I1
I13
F0.95
tp4
a(I2
I7
F0.95
tp5
a(I2
I10
F0.050000000000000044
tp6
a.(lp0
(I0
F0.0
tp1
a(I1
F0.0
tp2
a(I2
F0.0
tp3
a.(lp0
(I0
I12
I1
tp1
a(I1
I10
F0.050000000000000044
tp2
a(I1
I13
F0.95
tp3
a(I2
I7
F0.95
tp4
a(I2
I10
F0.050000000000000044
tp5
a.(lp0
(I0
I11
tp1
a(I1
I11
tp2
a(I2
I11
tp3
a.(lp0
(I0
I12
I1
tp1
a(I1
I10
F0.050000000000000044
tp2
a(I1
I13
F0.95
tp3
a(I2
I7
F0.95
tp4
a(I2
I10
F0.050000000000000044
tp5
a.(lp0
(I0
F0.0
tp1
a(I1
F0.0
tp2
a(I2
F0.0
tp3
a.(lp0
(I0
I12
I1
tp1
a(I1
I10
F0.050000000000000044
tp2
a(I1
I13
F0.95
tp3
a(I2
I7
F0.95
tp4
a(I2
I10
F0.050000000000000044
tp5
a.(lp0
(I0
I11
tp1
a(I1
I11
tp2
a(I2
I11
tp3
a.(lp0
(I0
I12
I1
tp1
a(I1
I10
F0.050000000000000044
tp2
a(I1
I13
F0.95
tp3
a(I2
I7
F0.95
tp4
a(I2
I10
F0.050000000000000044
tp5
a.(lp0
(I0
F0.0
tp1
a(I1
F0.0
tp2
a(I2
F0.0
tp3
a.(lp0
(I0
I10
F0.050000000000000044
tp1
a(I0
I11
F0.95
tp2
a(I1
I10
F0.050000000000000044
tp3
a(I1
I13
F0.95
tp4
a(I2
I7
F0.95
tp5
a(I2
I10
F0.050000000000000044
tp6
a.(lp0
(I0
F0.0
tp1
a(I1
F0.0
tp2
a(I2
F0.0
tp3
a.(lp0
(I0
I12
I1
tp1
a(I1
I10
F0.050000000000000044
tp2
a(I1
I13
F0.95
tp3
a(I2
I7
F0.95
tp4
a(I2
I10
F0.050000000000000044
tp5
a.(lp0
(I0
I11
tp1
a(I1
I11
tp2
a(I2
I11
tp3
a.(lp0
(I0
I12
I1
tp1
a(I1
I10
F0.050000000000000044
tp2
a(I1
I13
F0.95
tp3
a(I2
I7
F0.95
tp4
a(I2
I10
F0.050000000000000044
tp5
a.(lp0
(I0
F0.0
tp1
a(I1
F0.0
tp2
a(I2
F0.0
tp3
a.(lp0
(I0
I10
F0.050000000000000044
tp1
a(I0
I11
F0.95
tp2
a(I1
I10
F0.050000000000000044
tp3
a(I1
I13
F0.95
tp4
a(I2
I7
F0.95
tp5
a(I2
I10
F0.050000000000000044
tp6
a.(lp0
(I0
F0.0
tp1
a(I1
F0.0
tp2
a(I2
F0.0
tp3
a.(lp0
(I0
I12
I1
tp1
a(I1
I10
F0.050000000000000044
tp2
a(I1
I13
F0.95
tp3
a(I2
I7
F0.95
tp4
a(I2
I10
F0.050000000000000044
tp5
a.(lp0
(I0
I11
tp1
a(I1
I11
tp2
a(I2
I11
tp3
a.(lp0
(I0
I10
F0.050000000000000044
tp1
a(I0
I11
F0.95
tp2
a(I1
I10
F0.050000000000000044
tp3
a(I1
I13
F0.95
tp4
a(I2
I7
F0.95
tp5
a(I2
I10
F0.050000000000000044
tp6
a.(lp0
(I0
F0.0
tp1
a(I1
F0.0
tp2
a(I2
F0.0
tp3
a.(lp0
(I0
I10
F0.050000000000000044
tp1
a(I0
I11
F0.95
tp2
a(I1
I10
F0.050000000000000044
tp3
a(I1
I13
F0.95
tp4
a(I2
I7
F0.95
tp5
a(I2
I10
F0.050000000000000044
tp6
a.(lp0
(I0
F0.0
tp1
a(I1
F0.0
tp2
a(I2
F0.0
tp3
a.(lp0
(I0
I13
F0.050000000000000044
tp1
a(I0
I14
F0.95
tp2
a(I1
I13
F1.0
tp3
a(I2
I10
F0.95
tp4
a(I2
I13
F0.050000000000000044
tp5
a.(lp0
(I0
F0.0
tp1
a(I1
F0.0
tp2
a(I2
F0.0
tp3
a.(lp0
(I0
I15
I1
tp1
a(I1
I13
F1.0
tp2
a(I2
I10
F0.95
tp3
a(I2
I13
F0.050000000000000044
tp4
a.(lp0
(I0
I18
tp1
a(I1
I18
tp2
a(I2
I18
tp3
a.(lp0
(I0
I15
I1
tp1
a(I1
I13
F1.0
tp2
a(I2
I10
F0.95
tp3
a(I2
I13
F0.050000000000000044
tp4
a.(lp0
(I0
F0.0
tp1
a(I1
F0.0
tp2
a(I2
F0.0
tp3
a.(lp0
(I0
I13
F0.050000000000000044
tp1
a(I0
I14
F0.95
tp2
a(I1
I13
F1.0
tp3
a(I2
I10
F0.95
tp4
a(I2
I13
F0.050000000000000044
tp5
a.(lp0
(I0
F0.0
tp1
a(I1
F0.0
tp2
a(I2
F0.0
tp3
a.(lp0
(I0
I15
I1
tp1
a(I1
I13
F1.0
tp2
a(I2
I10
F0.95
tp3
a(I2
I13
F0.050000000000000044
tp4
a.(lp0
(I0
I18
tp1
a(I1
I18
tp2
a(I2
I18
tp3
a.(lp0
(I0
I15
I1
tp1
a(I1
I13
F1.0
tp2
a(I2
I10
F0.95
tp3
a(I2
I13
F0.050000000000000044
tp4
a.(lp0
(I0
F0.0
tp1
a(I1
F0.0
tp2
a(I2
F0.0
tp3
a.(lp0
(I0
I13
F0.050000000000000044
tp1
a(I0
I14
F0.95
tp2
a(I1
I13
F1.0
tp3
a(I2
I10
F0.95
tp4
a(I2
I13
F0.050000000000000044
tp5
a.(lp0
(I0
F0.0
tp1
a(I1
F0.0
tp2
a(I2
F0.0
tp3
a.(lp0
(I0
I15
I1
tp1
a(I1
I13
F1.0
tp2
a(I2
I10
F0.95
tp3
a(I2
I13
F0.050000000000000044
tp4
a.(lp0
(I0
I18
tp1
a(I1
I18
tp2
a(I2
I18
tp3
a.(lp0
(I0
I13
F0.050000000000000044
tp1
a(I0
I14
F0.95
tp2
a(I1
I13
F1.0
tp3
a(I2
I10
F0.95
tp4
a(I2
I13
F0.050000000000000044
tp5
a.(lp0
(I0
F0.0
tp1
a(I1
F0.0
tp2
a(I2
F0.0
tp3
a.(lp0
(I0
I13
F0.050000000000000044
tp1
a(I0
I14
F0.95
tp2
a(I1
I13
F1.0
tp3
a(I2
I10
F0.95
tp4
a(I2
I13
F0.050000000000000044
tp5
a.(lp0
(I0
F0.0
tp1
a(I1
F0.0
tp2
a(I2
F0.0
tp3
a.(lp0
(I0
I16
F0.050000000000000044
tp1
a(I0
I21
F0.95
tp2
a(I1
I16
F0.050000000000000044
tp3
a(I1
I26
F0.95
tp4
a(I2
I16
F1.0
tp5
a.(lp0
(I0
F0.0
tp1
a(I1
F0.0
tp2
a(I2
F0.0
tp3
a.(lp0
(I0
I18
F0.050000000000000044
tp1
a(I0
I23
F0.95
tp2
a(I1
I18
F0.050000000000000044
tp3
a(I1
I29
F0.95
tp4
a(I2
I18
F1.0
tp5
a.(lp0
(I0
F0.0
tp1
a(I1
F0.0
tp2
a(I2
F0.0
tp3
a.(lp0
(I0
I19
F0.050000000000000044
tp1
a(I0
I24
F0.95
tp2
a(I1
I19
F0.050000000000000044
tp3
a(I1
I32
F0.95
tp4
a(I2
I19
F1.0
tp5
a.(lp0
(I0
F0.0
tp1
a(I1
F0.0
tp2
a(I2
F0.0
tp3
a.(lp0
(I0
I22
I1
tp1
a(I1
I22
F0.050000000000000044
tp2
a(I1
I36
F0.95
tp3
a(I2
I22
F1.0
tp4
a.(lp0
(I0
I15
tp1
a(I1
I15
tp2
a(I2
I15
tp3
a.(lp0
(I0
I22
I1
tp1
a(I1
I22
F0.050000000000000044
tp2
a(I1
I36
F0.95
tp3
a(I2
I22
F1.0
tp4
a.(lp0
(I0
F0.0
tp1
a(I1
F0.0
tp2
a(I2
F0.0
tp3
a.(lp0
(I0
I25
I1
tp1
a(I1
I25
F0.050000000000000044
tp2
a(I1
I38
F0.95
tp3
a(I2
I25
F1.0
tp4
a.(lp0
(I0
I15
tp1
a(I1
I15
tp2
a(I2
I15
tp3
a.(lp0
(I0
I26
F0.050000000000000044
tp1
a(I0
I31
F0.95
tp2
a(I1
I26
F0.050000000000000044
tp3
a(I1
I39
F0.95
tp4
a(I2
I16
F0.95
tp5
a(I2
I26
F0.050000000000000044
tp6
a.(lp0
(I0
F0.0
tp1
a(I1
F0.0
tp2
a(I2
F0.0
tp3
a.(lp0
(I0
I28
F0.050000000000000044
tp1
a(I0
I33
F0.95
tp2
a(I1
I28
F0.050000000000000044
tp3
a(I1
I41
F0.95
tp4
a(I2
I17
F0.95
tp5
a(I2
I28
F0.050000000000000044
tp6
a.(lp0
(I0
F0.0
tp1
a(I1
F0.0
tp2
a(I2
F0.0
tp3
a.(lp0
(I0
I29
F0.050000000000000044
tp1
a(I0
I34
F0.95
tp2
a(I1
I29
F0.050000000000000044
tp3
a(I1
I44
F0.95
tp4
a(I2
I18
F0.95
tp5
a(I2
I29
F0.050000000000000044
tp6
a.(lp0
(I0
F0.0
tp1
a(I1
F0.0
tp2
a(I2
F0.0
tp3
a.(lp0
(I0
I32
I1
tp1
a(I1
I32
F0.050000000000000044
tp2
a(I1
I48
F0.95
tp3
a(I2
I19
F0.95
tp4
a(I2
I32
F0.050000000000000044
tp5
a.(lp0
(I0
I13
tp1
a(I1
I13
tp2
a(I2
I13
tp3
a.(lp0
(I0
I32
I1
tp1
a(I1
I32
F0.050000000000000044
tp2
a(I1
I48
F0.95
tp3
a(I2
I19
F0.95
tp4
a(I2
I32
F0.050000000000000044
tp5
a.(lp0
(I0
F0.0
tp1
a(I1
F0.0
tp2
a(I2
F0.0
tp3
a.(lp0
(I0
I35
I1
tp1
a(I1
I35
F0.050000000000000044
tp2
a(I1
I50
F0.95
tp3
a(I2
I20
F0.95
tp4
a(I2
I35
F0.050000000000000044
tp5
a.(lp0
(I0
I13
tp1
a(I1
I13
tp2
a(I2
I13
tp3
a.(lp0
(I0
I36
F0.050000000000000044
tp1
a(I0
I37
F0.95
tp2
a(I1
I36
F0.050000000000000044
tp3
a(I1
I51
F0.95
tp4
a(I2
I22
F0.95
tp5
a(I2
I36
F0.050000000000000044
tp6
a.(lp0
(I0
F0.0
tp1
a(I1
F0.0
tp2
a(I2
F0.0
tp3
a.(lp0
(I0
I38
I1
tp1
a(I1
I38
F0.050000000000000044
tp2
a(I1
I53
F0.95
tp3
a(I2
I25
F0.95
tp4
a(I2
I38
F0.050000000000000044
tp5
a.(lp0
(I0
I13
tp1
a(I1
I13
tp2
a(I2
I13
tp3
a.(lp0
(I0
I39
F0.050000000000000044
tp1
a(I0
I43
F0.95
tp2
a(I1
I39
F0.050000000000000044
tp3
a(I1
I54
F0.95
tp4
a(I2
I26
F0.95
tp5
a(I2
I39
F0.050000000000000044
tp6
a.(lp0
(I0
F0.0
tp1
a(I1
F0.0
tp2
a(I2
F0.0
tp3
a.(lp0
(I0
I40
F0.050000000000000044
tp1
a(I0
I45
F0.95
tp2
a(I1
I40
F0.050000000000000044
tp3
a(I1
I55
F0.95
tp4
a(I2
I27
F0.95
tp5
a(I2
I40
F0.050000000000000044
tp6
a.(lp0
(I0
F0.0
tp1
a(I1
F0.0
tp2
a(I2
F0.0
tp3
a.(lp0
(I0
I41
F0.050000000000000044
tp1
a(I0
I46
F0.95
tp2
a(I1
I41
F0.050000000000000044
tp3
a(I1
I57
F0.95
tp4
a(I2
I28
F0.95
tp5
a(I2
I41
F0.050000000000000044
tp6
a.(lp0
(I0
F0.0
tp1
a(I1
F0.0
tp2
a(I2
F0.0
tp3
a.(lp0
(I0
I44
I1
tp1
a(I1
I44
F0.050000000000000044
tp2
a(I1
I60
F0.95
tp3
a(I2
I29
F0.95
tp4
a(I2
I44
F0.050000000000000044
tp5
a.(lp0
(I0
I5
tp1
a(I1
I5
tp2
a(I2
I5
tp3
a.(lp0
(I0
I44
I1
tp1
a(I1
I44
F0.050000000000000044
tp2
a(I1
I60
F0.95
tp3
a(I2
I29
F0.95
tp4
a(I2
I44
F0.050000000000000044
tp5
a.(lp0
(I0
F0.0
tp1
a(I1
F0.0
tp2
a(I2
F0.0
tp3
a.(lp0
(I0
I47
I1
tp1
a(I1
I47
F0.050000000000000044
tp2
a(I1
I62
F0.95
tp3
a(I2
I30
F0.95
tp4
a(I2
I47
F0.050000000000000044
tp5
a.(lp0
(I0
I5
tp1
a(I1
I5
tp2
a(I2
I5
tp3
a.(lp0
(I0
I48
F0.050000000000000044
tp1
a(I0
I49
F0.95
tp2
a(I1
I48
F0.050000000000000044
tp3
a(I1
I63
F0.95
tp4
a(I2
I32
F0.95
tp5
a(I2
I48
F0.050000000000000044
tp6
a.(lp0
(I0
F0.0
tp1
a(I1
F0.0
tp2
a(I2
F0.0
tp3
a.(lp0
(I0
I50
I1
tp1
a(I1
I50
F0.050000000000000044
tp2
a(I1
I65
F0.95
tp3
a(I2
I35
F0.95
tp4
a(I2
I50
F0.050000000000000044
tp5
a.(lp0
(I0
I5
tp1
a(I1
I5
tp2
a(I2
I5
tp3
a.(lp0
(I0
I51
F0.050000000000000044
tp1
a(I0
I52
F0.95
tp2
a(I1
I51
F0.050000000000000044
tp3
a(I1
I66
F0.95
tp4
a(I2
I36
F0.95
tp5
a(I2
I51
F0.050000000000000044
tp6
a.(lp0
(I0
F0.0
tp1
a(I1
F0.0
tp2
a(I2
F0.0
tp3
a.(lp0
(I0
I54
F0.050000000000000044
tp1
a(I0
I56
F0.95
tp2
a(I1
I54
F0.050000000000000044
tp3
a(I1
I67
F0.95
tp4
a(I2
I39
F0.95
tp5
a(I2
I54
F0.050000000000000044
tp6
a.(lp0
(I0
F0.0
tp1
a(I1
F0.0
tp2
a(I2
F0.0
tp3
a.(lp0
(I0
I55
F0.050000000000000044
tp1
a(I0
I58
F0.95
tp2
a(I1
I55
F0.050000000000000044
tp3
a(I1
I69
F0.95
tp4
a(I2
I40
F0.95
tp5
a(I2
I55
F0.050000000000000044
tp6
a.(lp0
(I0
F0.0
tp1
a(I1
F0.0
tp2
a(I2
F0.0
tp3
a.(lp0
(I0
I57
I1
tp1
a(I1
I57
F0.050000000000000044
tp2
a(I1
I70
F0.95
tp3
a(I2
I41
F0.95
tp4
a(I2
I57
F0.050000000000000044
tp5
a.(lp0
(I0
I11
tp1
a(I1
I11
tp2
a(I2
I11
tp3
a.(lp0
(I0
I57
I1
tp1
a(I1
I57
F0.050000000000000044
tp2
a(I1
I70
F0.95
tp3
a(I2
I41
F0.95
tp4
a(I2
I57
F0.050000000000000044
tp5
a.(lp0
(I0
F0.0
tp1
a(I1
F0.0
tp2
a(I2
F0.0
tp3
a.(lp0
(I0
I59
I1
tp1
a(I1
I59
F0.050000000000000044
tp2
a(I1
I72
F0.95
tp3
a(I2
I42
F0.95
tp4
a(I2
I59
F0.050000000000000044
tp5
a.(lp0
(I0
I11
tp1
a(I1
I11
tp2
a(I2
I11
tp3
a.(lp0
(I0
I60
F0.050000000000000044
tp1
a(I0
I61
F0.95
tp2
a(I1
I60
F0.050000000000000044
tp3
a(I1
I73
F0.95
tp4
a(I2
I44
F0.95
tp5
a(I2
I60
F0.050000000000000044
tp6
a.(lp0
(I0
F0.0
tp1
a(I1
F0.0
tp2
a(I2
F0.0
tp3
a.(lp0
(I0
I62
I1
tp1
a(I1
I62
F0.050000000000000044
tp2
a(I1
I75
F0.95
tp3
a(I2
I47
F0.95
tp4
a(I2
I62
F0.050000000000000044
tp5
a.(lp0
(I0
I11
tp1
a(I1
I11
tp2
a(I2
I11
tp3
a.(lp0
(I0
I63
F0.050000000000000044
tp1
a(I0
I64
F0.95
tp2
a(I1
I63
F0.050000000000000044
tp3
a(I1
I76
F0.95
tp4
a(I2
I48
F0.95
tp5
a(I2
I63
F0.050000000000000044
tp6
a.(lp0
(I0
F0.0
tp1
a(I1
F0.0
tp2
a(I2
F0.0
tp3
a.(lp0
(I0
I67
F0.050000000000000044
tp1
a(I0
I68
F0.95
tp2
a(I1
I67
F1.0
tp3
a(I2
I54
F0.95
tp4
a(I2
I67
F0.050000000000000044
tp5
a.(lp0
(I0
F0.0
tp1
a(I1
F0.0
tp2
a(I2
F0.0
tp3
a.(lp0
(I0
I69
I1
tp1
a(I1
I69
F1.0
tp2
a(I2
I55
F0.95
tp3
a(I2
I69
F0.050000000000000044
tp4
a.(lp0
(I0
I18
tp1
a(I1
I18
tp2
a(I2
I18
tp3
a.(lp0
(I0
I69
I1
tp1
a(I1
I69
F1.0
tp2
a(I2
I55
F0.95
tp3
a(I2
I69
F0.050000000000000044
tp4
a.(lp0
(I0
F0.0
tp1
a(I1
F0.0
tp2
a(I2
F0.0
tp3
a.(lp0
(I0
I70
F0.050000000000000044
tp1
a(I0
I71
F0.95
tp2
a(I1
I70
F1.0
tp3
a(I2
I57
F0.95
tp4
a(I2
I70
F0.050000000000000044
tp5
a.(lp0
(I0
F0.0
tp1
a(I1
F0.0
tp2
a(I2
F0.0
tp3
a.(lp0
(I0
I72
I1
tp1
a(I1
I72
F1.0
tp2
a(I2
I59
F0.95
tp3
a(I2
I72
F0.050000000000000044
tp4
a.(lp0
(I0
I18
tp1
a(I1
I18
tp2
a(I2
I18
tp3
a.(lp0
(I0
I73
F0.050000000000000044
tp1
a(I0
I74
F0.95
tp2
a(I1
I73
F1.0
tp3
a(I2
I60
F0.95
tp4
a(I2
I73
F0.050000000000000044
tp5
a.(lp0
(I0
F0.0
tp1
a(I1
F0.0
tp2
a(I2
F0.0
tp3
a.(lp0
(I0
I77
F0.050000000000000044
tp1
a(I0
I80
F0.95
tp2
a(I1
I77
F0.050000000000000044
tp3
a(I1
I83
F0.95
tp4
a(I2
I77
F1.0
tp5
a.(lp0
(I0
F0.0
tp1
a(I1
F0.0
tp2
a(I2
F0.0
tp3
a.(lp0
(I0
I79
F0.050000000000000044
tp1
a(I0
I82
F0.95
tp2
a(I1
I79
F0.050000000000000044
tp3
a(I1
I87
F0.95
tp4
a(I2
I79
F1.0
tp5
a.(lp0
(I0
F0.0
tp1
a(I1
F0.0
tp2
a(I2
F0.0
tp3
a.(lp0
(I0
I81
I1
tp1
a(I1
I81
F0.050000000000000044
tp2
a(I1
I89
F0.95
tp3
a(I2
I81
F1.0
tp4
a.(lp0
(I0
I15
tp1
a(I1
I15
tp2
a(I2
I15
tp3
a.(lp0
(I0
I81
I1
tp1
a(I1
I81
F0.050000000000000044
tp2
a(I1
I89
F0.95
tp3
a(I2
I81
F1.0
tp4
a.(lp0
(I0
F0.0
tp1
a(I1
F0.0
tp2
a(I2
F0.0
tp3
a.(lp0
(I0
I83
F0.050000000000000044
tp1
a(I0
I86
F0.95
tp2
a(I1
I83
F0.050000000000000044
tp3
a(I1
I91
F0.95
tp4
a(I2
I77
F0.95
tp5
a(I2
I83
F0.050000000000000044
tp6
a.(lp0
(I0
F0.0
tp1
a(I1
F0.0
tp2
a(I2
F0.0
tp3
a.(lp0
(I0
I85
F0.050000000000000044
tp1
a(I0
I88
F0.95
tp2
a(I1
I85
F0.050000000000000044
tp3
a(I1
I95
F0.95
tp4
a(I2
I78
F0.95
tp5
a(I2
I85
F0.050000000000000044
tp6
a.(lp0
(I0
F0.0
tp1
a(I1
F0.0
tp2
a(I2
F0.0
tp3
a.(lp0
(I0
I87
I1
tp1
a(I1
I87
F0.050000000000000044
tp2
a(I1
I97
F0.95
tp3
a(I2
I79
F0.95
tp4
a(I2
I87
F0.050000000000000044
tp5
a.(lp0
(I0
I13
tp1
a(I1
I13
tp2
a(I2
I13
tp3
a.(lp0
(I0
I87
I1
tp1
a(I1
I87
F0.050000000000000044
tp2
a(I1
I97
F0.95
tp3
a(I2
I79
F0.95
tp4
a(I2
I87
F0.050000000000000044
tp5
a.(lp0
(I0
F0.0
tp1
a(I1
F0.0
tp2
a(I2
F0.0
tp3
a.(lp0
(I0
I89
F0.050000000000000044
tp1
a(I0
I90
F0.95
tp2
a(I1
I89
F0.050000000000000044
tp3
a(I1
I99
F0.95
tp4
a(I2
I81
F0.95
tp5
a(I2
I89
F0.050000000000000044
tp6
a.(lp0
(I0
F0.0
tp1
a(I1
F0.0
tp2
a(I2
F0.0
tp3
a.(lp0
(I0
I91
F0.050000000000000044
tp1
a(I0
I94
F0.95
tp2
a(I1
I91
F0.050000000000000044
tp3
a(I1
I100
F0.95
tp4
a(I2
I83
F0.95
tp5
a(I2
I91
F0.050000000000000044
tp6
a.(lp0
(I0
F0.0
tp1
a(I1
F0.0
tp2
a(I2
F0.0
tp3
a.(lp0
(I0
I93
F0.050000000000000044
tp1
a(I0
I96
F0.95
tp2
a(I1
I93
F0.050000000000000044
tp3
a(I1
I103
F0.95
tp4
a(I2
I84
F0.95
tp5
a(I2
I93
F0.050000000000000044
tp6
a.(lp0
(I0
F0.0
tp1
a(I1
F0.0
tp2
a(I2
F0.0
tp3
a.(lp0
(I0
I95
I1
tp1
a(I1
I95
F0.050000000000000044
tp2
a(I1
I105
F0.95
tp3
a(I2
I85
F0.95
tp4
a(I2
I95
F0.050000000000000044
tp5
a.(lp0
(I0
I5
tp1
a(I1
I5
tp2
a(I2
I5
tp3
a.(lp0
(I0
I95
I1
tp1
a(I1
I95
F0.050000000000000044
tp2
a(I1
I105
F0.95
tp3
a(I2
I85
F0.95
tp4
a(I2
I95
F0.050000000000000044
tp5
a.(lp0
(I0
F0.0
tp1
a(I1
F0.0
tp2
a(I2
F0.0
tp3
a.(lp0
(I0
I97
F0.050000000000000044
tp1
a(I0
I98
F0.95
tp2
a(I1
I97
F0.050000000000000044
tp3
a(I1
I107
F0.95
tp4
a(I2
I87
F0.95
tp5
a(I2
I97
F0.050000000000000044
tp6
a.(lp0
(I0
F0.0
tp1
a(I1
F0.0
tp2
a(I2
F0.0
tp3
a.(lp0
(I0
I100
F0.050000000000000044
tp1
a(I0
I102
F0.95
tp2
a(I1
I100
F0.050000000000000044
tp3
a(I1
I108
F0.95
tp4
a(I2
I91
F0.95
tp5
a(I2
I100
F0.050000000000000044
tp6
a.(lp0
(I0
F0.0
tp1
a(I1
F0.0
tp2
a(I2
F0.0
tp3
a.(lp0
(I0
I101
F0.050000000000000044
tp1
a(I0
I104
F0.95
tp2
a(I1
I101
F0.050000000000000044
tp3
a(I1
I110
F0.95
tp4
a(I2
I92
F0.95
tp5
a(I2
I101
F0.050000000000000044
tp6
a.(lp0
(I0
F0.0
tp1
a(I1
F0.0
tp2
a(I2
F0.0
tp3
a.(lp0
(I0
I103
I1
tp1
a(I1
I103
F0.050000000000000044
tp2
a(I1
I111
F0.95
tp3
a(I2
I93
F0.95
tp4
a(I2
I103
F0.050000000000000044
tp5
a.(lp0
(I0
I11
tp1
a(I1
I11
tp2
a(I2
I11
tp3
a.(lp0
(I0
I103
I1
tp1
a(I1
I103
F0.050000000000000044
tp2
a(I1
I111
F0.95
tp3
a(I2
I93
F0.95
tp4
a(I2
I103
F0.050000000000000044
tp5
a.(lp0
(I0
F0.0
tp1
a(I1
F0.0
tp2
a(I2
F0.0
tp3
a.(lp0
(I0
I105
F0.050000000000000044
tp1
a(I0
I106
F0.95
tp2
a(I1
I105
F0.050000000000000044
tp3
a(I1
I113
F0.95
tp4
a(I2
I95
F0.95
tp5
a(I2
I105
F0.050000000000000044
tp6
a.(lp0
(I0
F0.0
tp1
a(I1
F0.0
tp2
a(I2
F0.0
tp3
a.(lp0
(I0
I108
F0.050000000000000044
tp1
a(I0
I109
F0.95
tp2
a(I1
I108
F1.0
tp3
a(I2
I100
F0.95
tp4
a(I2
I108
F0.050000000000000044
tp5
a.(lp0
(I0
F0.0
tp1
a(I1
F0.0
tp2
a(I2
F0.0
tp3
a.(lp0
(I0
I110
I1
tp1
a(I1
I110
F1.0
tp2
a(I2
I101
F0.95
tp3
a(I2
I110
F0.050000000000000044
tp4
a.(lp0
(I0
I18
tp1
a(I1
I18
tp2
a(I2
I18
tp3
a.(lp0
(I0
I110
I1
tp1
a(I1
I110
F1.0
tp2
a(I2
I101
F0.95
tp3
a(I2
I110
F0.050000000000000044
tp4
a.(lp0
(I0
F0.0
tp1
a(I1
F0.0
tp2
a(I2
F0.0
tp3
a.(lp0
(I0
I111
F0.050000000000000044
tp1
a(I0
I112
F0.95
tp2
a(I1
I111
F1.0
tp3
a(I2
I103
F0.95
tp4
a(I2
I111
F0.050000000000000044
tp5
a.(lp0
(I0
F0.0
tp1
a(I1
F0.0
tp2
a(I2
F0.0
tp3
a.(lp0
(I0
I114
F0.050000000000000044
tp1
a(I0
I116
F0.95
tp2
a(I1
I114
F0.050000000000000044
tp3
a(I1
I118
F0.95
tp4
a(I2
I114
F1.0
tp5
a.(lp0
(I0
F0.0
tp1
a(I1
F0.0
tp2
a(I2
F0.0
tp3
a.(lp0
(I0
I117
I1
tp1
a(I1
I117
F0.050000000000000044
tp2
a(I1
I122
F0.95
tp3
a(I2
I117
F1.0
tp4
a.(lp0
(I0
I15
tp1
a(I1
I15
tp2
a(I2
I15
tp3
a.(lp0
(I0
I117
I1
tp1
a(I1
I117
F0.050000000000000044
tp2
a(I1
I122
F0.95
tp3
a(I2
I117
F1.0
tp4
a.(lp0
(I0
F0.0
tp1
a(I1
F0.0
tp2
a(I2
F0.0
tp3
a.(lp0
(I0
I118
F0.050000000000000044
tp1
a(I0
I120
F0.95
tp2
a(I1
I118
F0.050000000000000044
tp3
a(I1
I123
F0.95
tp4
a(I2
I114
F0.95
tp5
a(I2
I118
F0.050000000000000044
tp6
a.(lp0
(I0
F0.0
tp1
a(I1
F0.0
tp2
a(I2
F0.0
tp3
a.(lp0
(I0
I121
I1
tp1
a(I1
I121
F0.050000000000000044
tp2
a(I1
I127
F0.95
tp3
a(I2
I115
F0.95
tp4
a(I2
I121
F0.050000000000000044
tp5
a.(lp0
(I0
I13
tp1
a(I1
I13
tp2
a(I2
I13
tp3
a.(lp0
(I0
I121
I1
tp1
a(I1
I121
F0.050000000000000044
tp2
a(I1
I127
F0.95
tp3
a(I2
I115
F0.95
tp4
a(I2
I121
F0.050000000000000044
tp5
a.(lp0
(I0
F0.0
tp1
a(I1
F0.0
tp2
a(I2
F0.0
tp3
a.(lp0
(I0
I123
F0.050000000000000044
tp1
a(I0
I125
F0.95
tp2
a(I1
I123
F0.050000000000000044
tp3
a(I1
I128
F0.95
tp4
a(I2
I118
F0.95
tp5
a(I2
I123
F0.050000000000000044
tp6
a.(lp0
(I0
F0.0
tp1
a(I1
F0.0
tp2
a(I2
F0.0
tp3
a.(lp0
(I0
I126
I1
tp1
a(I1
I126
F0.050000000000000044
tp2
a(I1
I132
F0.95
tp3
a(I2
I119
F0.95
tp4
a(I2
I126
F0.050000000000000044
tp5
a.(lp0
(I0
I5
tp1
a(I1
I5
tp2
a(I2
I5
tp3
a.(lp0
(I0
I126
I1
tp1
a(I1
I126
F0.050000000000000044
tp2
a(I1
I132
F0.95
tp3
a(I2
I119
F0.95
tp4
a(I2
I126
F0.050000000000000044
tp5
a.(lp0
(I0
F0.0
tp1
a(I1
F0.0
tp2
a(I2
F0.0
tp3
a.(lp0
(I0
I128
F0.050000000000000044
tp1
a(I0
I130
F0.95
tp2
a(I1
I128
F0.050000000000000044
tp3
a(I1
I133
F0.95
tp4
a(I2
I123
F0.95
tp5
a(I2
I128
F0.050000000000000044
tp6
a.(lp0
(I0
F0.0
tp1
a(I1
F0.0
tp2
a(I2
F0.0
tp3
a.(lp0
(I0
I131
I1
tp1
a(I1
I131
F0.050000000000000044
tp2
a(I1
I136
F0.95
tp3
a(I2
I124
F0.95
tp4
a(I2
I131
F0.050000000000000044
tp5
a.(lp0
(I0
I11
tp1
a(I1
I11
tp2
a(I2
I11
tp3
a.(lp0
(I0
I131
I1
tp1
a(I1
I131
F0.050000000000000044
tp2
a(I1
I136
F0.95
tp3
a(I2
I124
F0.95
tp4
a(I2
I131
F0.050000000000000044
tp5
a.(lp0
(I0
F0.0
tp1
a(I1
F0.0
tp2
a(I2
F0.0
tp3
a.(lp0
(I0
I133
F0.050000000000000044
tp1
a(I0
I134
F0.95
tp2
a(I1
I133
F1.0
tp3
a(I2
I128
F0.95
tp4
a(I2
I133
F0.050000000000000044
tp5
a.(lp0
(I0
F0.0
tp1
a(I1
F0.0
tp2
a(I2
F0.0
tp3
a.(lp0
(I0
I135
I1
tp1
a(I1
I135
F1.0
tp2
a(I2
I129
F0.95
tp3
a(I2
I135
F0.050000000000000044
tp4
a.(lp0
(I0
I18
tp1
a(I1
I18
tp2
a(I2
I18
tp3
a.(lp0
(I0
I135
I1
tp1
a(I1
I135
F1.0
tp2
a(I2
I129
F0.95
tp3
a(I2
I135
F0.050000000000000044
tp4
a.(lp0
(I0
F0.0
tp1
a(I1
F0.0
tp2
a(I2
F0.0
tp3
a.(lp0
(I0
I137
F0.050000000000000044
tp1
a(I0
I138
F0.95
tp2
a(I1
I137
F0.050000000000000044
tp3
a(I1
I140
F0.95
tp4
a(I2
I137
F1.0
tp5
a.(lp0
(I0
F0.0
tp1
a(I1
F0.0
tp2
a(I2
F0.0
tp3
a.(lp0
(I0
I137
F0.050000000000000044
tp1
a(I0
I138
F0.95
tp2
a(I1
I137
F0.050000000000000044
tp3
a(I1
I140
F0.95
tp4
a(I2
I137
F1.0
tp5
a.(lp0
(I0
F0.0
tp1
a(I1
F0.0
tp2
a(I2
F0.0
tp3
a.(lp0
(I0
I137
F0.050000000000000044
tp1
a(I0
I138
F0.95
tp2
a(I1
I137
F0.050000000000000044
tp3
a(I1
I140
F0.95
tp4
a(I2
I137
F1.0
tp5
a.(lp0
(I0
F0.0
tp1
a(I1
F0.0
tp2
a(I2
F0.0
tp3
a.(lp0
(I0
I139
I1
tp1
a(I1
I137
F0.050000000000000044
tp2
a(I1
I140
F0.95
tp3
a(I2
I137
F1.0
tp4
a.(lp0
(I0
I15
tp1
a(I1
I15
tp2
a(I2
I15
tp3
a.(lp0
(I0
I139
I1
tp1
a(I1
I137
F0.050000000000000044
tp2
a(I1
I140
F0.95
tp3
a(I2
I137
F1.0
tp4
a.(lp0
(I0
F0.0
tp1
a(I1
F0.0
tp2
a(I2
F0.0
tp3
a.(lp0
(I0
I139
I1
tp1
a(I1
I137
F0.050000000000000044
tp2
a(I1
I140
F0.95
tp3
a(I2
I137
F1.0
tp4
a.(lp0
(I0
I15
tp1
a(I1
I15
tp2
a(I2
I15
tp3
a.(lp0
(I0
I140
F0.050000000000000044
tp1
a(I0
I141
F0.95
tp2
a(I1
I140
F0.050000000000000044
tp3
a(I1
I143
F0.95
tp4
a(I2
I137
F0.95
tp5
a(I2
I140
F0.050000000000000044
tp6
a.(lp0
(I0
F0.0
tp1
a(I1
F0.0
tp2
a(I2
F0.0
tp3
a.(lp0
(I0
I140
F0.050000000000000044
tp1
a(I0
I141
F0.95
tp2
a(I1
I140
F0.050000000000000044
tp3
a(I1
I143
F0.95
tp4
a(I2
I137
F0.95
tp5
a(I2
I140
F0.050000000000000044
tp6
a.(lp0
(I0
F0.0
tp1
a(I1
F0.0
tp2
a(I2
F0.0
tp3
a.(lp0
(I0
I140
F0.050000000000000044
tp1
a(I0
I141
F0.95
tp2
a(I1
I140
F0.050000000000000044
tp3
a(I1
I143
F0.95
tp4
a(I2
I137
F0.95
tp5
a(I2
I140
F0.050000000000000044
tp6
a.(lp0
(I0
F0.0
tp1
a(I1
F0.0
tp2
a(I2
F0.0
tp3
a.(lp0
(I0
I142
I1
tp1
a(I1
I140
F0.050000000000000044
tp2
a(I1
I143
F0.95
tp3
a(I2
I137
F0.95
tp4
a(I2
I140
F0.050000000000000044
tp5
a.(lp0
(I0
I13
tp1
a(I1
I13
tp2
a(I2
I13
tp3
a.(lp0
(I0
I142
I1
tp1
a(I1
I140
F0.050000000000000044
tp2
a(I1
I143
F0.95
tp3
a(I2
I137
F0.95
tp4
a(I2
I140
F0.050000000000000044
tp5
a.(lp0
(I0
F0.0
tp1
a(I1
F0.0
tp2
a(I2
F0.0
tp3
a.(lp0
(I0
I142
I1
tp1
a(I1
I140
F0.050000000000000044
tp2
a(I1
I143
F0.95
tp3
a(I2
I137
F0.95
tp4
a(I2
I140
F0.050000000000000044
tp5
a.(lp0
(I0
I13
tp1
a(I1
I13
tp2
a(I2
I13
tp3
a.(lp0
(I0
I140
F0.050000000000000044
tp1
a(I0
I141
F0.95
tp2
a(I1
I140
F0.050000000000000044
tp3
a(I1
I143
F0.95
tp4
a(I2
I137
F0.95
tp5
a(I2
I140
F0.050000000000000044
tp6
a.(lp0
(I0
F0.0
tp1
a(I1
F0.0
tp2
a(I2
F0.0
tp3
a.(lp0
(I0
I142
I1
tp1
a(I1
I140
F0.050000000000000044
tp2
a(I1
I143
F0.95
tp3
a(I2
I137
F0.95
tp4
a(I2
I140
F0.050000000000000044
tp5
a.(lp0
(I0
I13
tp1
a(I1
I13
tp2
a(I2
I13
tp3
a.(lp0
(I0
I143
F0.050000000000000044
tp1
a(I0
I144
F0.95
tp2
a(I1
I143
F0.050000000000000044
tp3
a(I1
I146
F0.95
tp4
a(I2
I140
F0.95
tp5
a(I2
I143
F0.050000000000000044
tp6
a.(lp0
(I0
F0.0
tp1
a(I1
F0.0
tp2
a(I2
F0.0
tp3
a.(lp0
(I0
I143
F0.050000000000000044
tp1
a(I0
I144
F0.95
tp2
a(I1
I143
F0.050000000000000044
tp3
a(I1
I146
F0.95
tp4
a(I2
I140
F0.95
tp5
a(I2
I143
F0.050000000000000044
tp6
a.(lp0
(I0
F0.0
tp1
a(I1
F0.0
tp2
a(I2
F0.0
tp3
a.(lp0
(I0
I143
F0.050000000000000044
tp1
a(I0
I144
F0.95
tp2
a(I1
I143
F0.050000000000000044
tp3
a(I1
I146
F0.95
tp4
a(I2
I140
F0.95
tp5
a(I2
I143
F0.050000000000000044
tp6
a.(lp0
(I0
F0.0
tp1
a(I1
F0.0
tp2
a(I2
F0.0
tp3
a.(lp0
(I0
I145
I1
tp1
a(I1
I143
F0.050000000000000044
tp2
a(I1
I146
F0.95
tp3
a(I2
I140
F0.95
tp4
a(I2
I143
F0.050000000000000044
tp5
a.(lp0
(I0
I5
tp1
a(I1
I5
tp2
a(I2
I5
tp3
a.(lp0
(I0
I145
I1
tp1
a(I1
I143
F0.050000000000000044
tp2
a(I1
I146
F0.95
tp3
a(I2
I140
F0.95
tp4
a(I2
I143
F0.050000000000000044
tp5
a.(lp0
(I0
F0.0
tp1
a(I1
F0.0
tp2
a(I2
F0.0
tp3
a.(lp0
(I0
I145
I1
tp1
a(I1
I143
F0.050000000000000044
tp2
a(I1
I146
F0.95
tp3
a(I2
I140
F0.95
tp4
a(I2
I143
F0.050000000000000044
tp5
a.(lp0
(I0
I5
tp1
a(I1
I5
tp2
a(I2
I5
tp3
a.(lp0
(I0
I143
F0.050000000000000044
tp1
a(I0
I144
F0.95
tp2
a(I1
I143
F0.050000000000000044
tp3
a(I1
I146
F0.95
tp4
a(I2
I140
F0.95
tp5
a(I2
I143
F0.050000000000000044
tp6
a.(lp0
(I0
F0.0
tp1
a(I1
F0.0
tp2
a(I2
F0.0
tp3
a.(lp0
(I0
I145
I1
tp1
a(I1
I143
F0.050000000000000044
tp2
a(I1
I146
F0.95
tp3
a(I2
I140
F0.95
tp4
a(I2
I143
F0.050000000000000044
tp5
a.(lp0
(I0
I5
tp1
a(I1
I5
tp2
a(I2
I5
tp3
a.(lp0
(I0
I143
F0.050000000000000044
tp1
a(I0
I144
F0.95
tp2
a(I1
I143
F0.050000000000000044
tp3
a(I1
I146
F0.95
tp4
a(I2
I140
F0.95
tp5
a(I2
I143
F0.050000000000000044
tp6
a.(lp0
(I0
F0.0
tp1
a(I1
F0.0
tp2
a(I2
F0.0
tp3
a.(lp0
(I0
I146
F0.050000000000000044
tp1
a(I0
I147
F0.95
tp2
a(I1
I146
F0.050000000000000044
tp3
a(I1
I149
F0.95
tp4
a(I2
I143
F0.95
tp5
a(I2
I146
F0.050000000000000044
tp6
a.(lp0
(I0
F0.0
tp1
a(I1
F0.0
tp2
a(I2
F0.0
tp3
a.(lp0
(I0
I146
F0.050000000000000044
tp1
a(I0
I147
F0.95
tp2
a(I1
I146
F0.050000000000000044
tp3
a(I1
I149
F0.95
tp4
a(I2
I143
F0.95
tp5
a(I2
I146
F0.050000000000000044
tp6
a.(lp0
(I0
F0.0
tp1
a(I1
F0.0
tp2
a(I2
F0.0
tp3
a.(lp0
(I0
I148
I1
tp1
a(I1
I146
F0.050000000000000044
tp2
a(I1
I149
F0.95
tp3
a(I2
I143
F0.95
tp4
a(I2
I146
F0.050000000000000044
tp5
a.(lp0
(I0
I11
tp1
a(I1
I11
tp2
a(I2
I11
tp3
a.(lp0
(I0
I148
I1
tp1
a(I1
I146
F0.050000000000000044
tp2
a(I1
I149
F0.95
tp3
a(I2
I143
F0.95
tp4
a(I2
I146
F0.050000000000000044
tp5
a.(lp0
(I0
F0.0
tp1
a(I1
F0.0
tp2
a(I2
F0.0
tp3
a.(lp0
(I0
I148
I1
tp1
a(I1
I146
F0.050000000000000044
tp2
a(I1
I149
F0.95
tp3
a(I2
I143
F0.95
tp4
a(I2
I146
F0.050000000000000044
tp5
a.(lp0
(I0
I11
tp1
a(I1
I11
tp2
a(I2
I11
tp3
a.(lp0
(I0
I146
F0.050000000000000044
tp1
a(I0
I147
F0.95
tp2
a(I1
I146
F0.050000000000000044
tp3
a(I1
I149
F0.95
tp4
a(I2
I143
F0.95
tp5
a(I2
I146
F0.050000000000000044
tp6
a.(lp0
(I0
F0.0
tp1
a(I1
F0.0
tp2
a(I2
F0.0
tp3
a.(lp0
(I0
I148
I1
tp1
a(I1
I146
F0.050000000000000044
tp2
a(I1
I149
F0.95
tp3
a(I2
I143
F0.95
tp4
a(I2
I146
F0.050000000000000044
tp5
a.(lp0
(I0
I11
tp1
a(I1
I11
tp2
a(I2
I11
tp3
a.(lp0
(I0
I146
F0.050000000000000044
tp1
a(I0
I147
F0.95
tp2
a(I1
I146
F0.050000000000000044
tp3
a(I1
I149
F0.95
tp4
a(I2
I143
F0.95
tp5
a(I2
I146
F0.050000000000000044
tp6
a.(lp0
(I0
F0.0
tp1
a(I1
F0.0
tp2
a(I2
F0.0
tp3
a.(lp0
(I0
I149
F0.050000000000000044
tp1
a(I0
I150
F0.95
tp2
a(I1
I149
F1.0
tp3
a(I2
I146
F0.95
tp4
a(I2
I149
F0.050000000000000044
tp5
a.(lp0
(I0
F0.0
tp1
a(I1
F0.0
tp2
a(I2
F0.0
tp3
a.(lp0
(I0
I151
I1
tp1
a(I1
I149
F1.0
tp2
a(I2
I146
F0.95
tp3
a(I2
I149
F0.050000000000000044
tp4
a.(lp0
(I0
I18
tp1
a(I1
I18
tp2
a(I2
I18
tp3
a.(lp0
(I0
I151
I1
tp1
a(I1
I149
F1.0
tp2
a(I2
I146
F0.95
tp3
a(I2
I149
F0.050000000000000044
tp4
a.(lp0
(I0
F0.0
tp1
a(I1
F0.0
tp2
a(I2
F0.0
tp3
a.(lp0
(I0
I149
F0.050000000000000044
tp1
a(I0
I150
F0.95
tp2
a(I1
I149
F1.0
tp3
a(I2
I146
F0.95
tp4
a(I2
I149
F0.050000000000000044
tp5
a.(lp0
(I0
F0.0
tp1
a(I1
F0.0
tp2
a(I2
F0.0
tp3
a.(lp0
(I0
I151
I1
tp1
a(I1
I149
F1.0
tp2
a(I2
I146
F0.95
tp3
a(I2
I149
F0.050000000000000044
tp4
a.(lp0
(I0
I18
tp1
a(I1
I18
tp2
a(I2
I18
tp3
a.(lp0
(I0
I149
F0.050000000000000044
tp1
a(I0
I150
F0.95
tp2
a(I1
I149
F1.0
tp3
a(I2
I146
F0.95
tp4
a(I2
I149
F0.050000000000000044
tp5
a.(lp0
(I0
F0.0
tp1
a(I1
F0.0
tp2
a(I2
F0.0
tp3
a.(lp0
(I0
I152
F0.050000000000000044
tp1
a(I0
I155
F0.95
tp2
a(I1
I152
F0.050000000000000044
tp3
a(I1
I158
F0.95
tp4
a(I2
I152
F1.0
tp5
a.(lp0
(I0
F0.0
tp1
a(I1
F0.0
tp2
a(I2
F0.0
tp3
a.(lp0
(I0
I154
F0.050000000000000044
tp1
a(I0
I157
F0.95
tp2
a(I1
I154
F0.050000000000000044
tp3
a(I1
I162
F0.95
tp4
a(I2
I154
F1.0
tp5
a.(lp0
(I0
F0.0
tp1
a(I1
F0.0
tp2
a(I2
F0.0
tp3
a.(lp0
(I0
I156
I1
tp1
a(I1
I156
F0.050000000000000044
tp2
a(I1
I164
F0.95
tp3
a(I2
I156
F1.0
tp4
a.(lp0
(I0
I15
tp1
a(I1
I15
tp2
a(I2
I15
tp3
a.(lp0
(I0
I156
I1
tp1
a(I1
I156
F0.050000000000000044
tp2
a(I1
I164
F0.95
tp3
a(I2
I156
F1.0
tp4
a.(lp0
(I0
F0.0
tp1
a(I1
F0.0
tp2
a(I2
F0.0
tp3
a.(lp0
(I0
I158
F0.050000000000000044
tp1
a(I0
I161
F0.95
tp2
a(I1
I158
F0.050000000000000044
tp3
a(I1
I166
F0.95
tp4
a(I2
I152
F0.95
tp5
a(I2
I158
F0.050000000000000044
tp6
a.(lp0
(I0
F0.0
tp1
a(I1
F0.0
tp2
a(I2
F0.0
tp3
a.(lp0
(I0
I160
F0.050000000000000044
tp1
a(I0
I163
F0.95
tp2
a(I1
I160
F0.050000000000000044
tp3
a(I1
I170
F0.95
tp4
a(I2
I153
F0.95
tp5
a(I2
I160
F0.050000000000000044
tp6
a.(lp0
(I0
F0.0
tp1
a(I1
F0.0
tp2
a(I2
F0.0
tp3
a.(lp0
(I0
I162
I1
tp1
a(I1
I162
F0.050000000000000044
tp2
a(I1
I172
F0.95
tp3
a(I2
I154
F0.95
tp4
a(I2
I162
F0.050000000000000044
tp5
a.(lp0
(I0
I13
tp1
a(I1
I13
tp2
a(I2
I13
tp3
a.(lp0
(I0
I162
I1
tp1
a(I1
I162
F0.050000000000000044
tp2
a(I1
I172
F0.95
tp3
a(I2
I154
F0.95
tp4
a(I2
I162
F0.050000000000000044
tp5
a.(lp0
(I0
F0.0
tp1
a(I1
F0.0
tp2
a(I2
F0.0
tp3
a.(lp0
(I0
I164
F0.050000000000000044
tp1
a(I0
I165
F0.95
tp2
a(I1
I164
F0.050000000000000044
tp3
a(I1
I174
F0.95
tp4
a(I2
I156
F0.95
tp5
a(I2
I164
F0.050000000000000044
tp6
a.(lp0
(I0
F0.0
tp1
a(I1
F0.0
tp2
a(I2
F0.0
tp3
a.(lp0
(I0
I166
F0.050000000000000044
tp1
a(I0
I169
F0.95
tp2
a(I1
I166
F0.050000000000000044
tp3
a(I1
I175
F0.95
tp4
a(I2
I158
F0.95
tp5
a(I2
I166
F0.050000000000000044
tp6
a.(lp0
(I0
F0.0
tp1
a(I1
F0.0
tp2
a(I2
F0.0
tp3
a.(lp0
(I0
I168
F0.050000000000000044
tp1
a(I0
I171
F0.95
tp2
a(I1
I168
F0.050000000000000044
tp3
a(I1
I178
F0.95
tp4
a(I2
I159
F0.95
tp5
a(I2
I168
F0.050000000000000044
tp6
a.(lp0
(I0
F0.0
tp1
a(I1
F0.0
tp2
a(I2
F0.0
tp3
a.(lp0
(I0
I170
I1
tp1
a(I1
I170
F0.050000000000000044
tp2
a(I1
I180
F0.95
tp3
a(I2
I160
F0.95
tp4
a(I2
I170
F0.050000000000000044
tp5
a.(lp0
(I0
I5
tp1
a(I1
I5
tp2
a(I2
I5
tp3
a.(lp0
(I0
I170
I1
tp1
a(I1
I170
F0.050000000000000044
tp2
a(I1
I180
F0.95
tp3
a(I2
I160
F0.95
tp4
a(I2
I170
F0.050000000000000044
tp5
a.(lp0
(I0
F0.0
tp1
a(I1
F0.0
tp2
a(I2
F0.0
tp3
a.(lp0
(I0
I172
F0.050000000000000044
tp1
a(I0
I173
F0.95
tp2
a(I1
I172
F0.050000000000000044
tp3
a(I1
I182
F0.95
tp4
a(I2
I162
F0.95
tp5
a(I2
I172
F0.050000000000000044
tp6
a.(lp0
(I0
F0.0
tp1
a(I1
F0.0
tp2
a(I2
F0.0
tp3
a.(lp0
(I0
I175
F0.050000000000000044
tp1
a(I0
I177
F0.95
tp2
a(I1
I175
F0.050000000000000044
tp3
a(I1
I183
F0.95
tp4
a(I2
I166
F0.95
tp5
a(I2
I175
F0.050000000000000044
tp6
a.(lp0
(I0
F0.0
tp1
a(I1
F0.0
tp2
a(I2
F0.0
tp3
a.(lp0
(I0
I176
F0.050000000000000044
tp1
a(I0
I179
F0.95
tp2
a(I1
I176
F0.050000000000000044
tp3
a(I1
I185
F0.95
tp4
a(I2
I167
F0.95
tp5
a(I2
I176
F0.050000000000000044
tp6
a.(lp0
(I0
F0.0
tp1
a(I1
F0.0
tp2
a(I2
F0.0
tp3
a.(lp0
(I0
I178
I1
tp1
a(I1
I178
F0.050000000000000044
tp2
a(I1
I186
F0.95
tp3
a(I2
I168
F0.95
tp4
a(I2
I178
F0.050000000000000044
tp5
a.(lp0
(I0
I11
tp1
a(I1
I11
tp2
a(I2
I11
tp3
a.(lp0
(I0
I178
I1
tp1
a(I1
I178
F0.050000000000000044
tp2
a(I1
I186
F0.95
tp3
a(I2
I168
F0.95
tp4
a(I2
I178
F0.050000000000000044
tp5
a.(lp0
(I0
F0.0
tp1
a(I1
F0.0
tp2
a(I2
F0.0
tp3
a.(lp0
(I0
I180
F0.050000000000000044
tp1
a(I0
I181
F0.95
tp2
a(I1
I180
F0.050000000000000044
tp3
a(I1
I188
F0.95
tp4
a(I2
I170
F0.95
tp5
a(I2
I180
F0.050000000000000044
tp6
a.(lp0
(I0
F0.0
tp1
a(I1
F0.0
tp2
a(I2
F0.0
tp3
a.(lp0
(I0
I183
F0.050000000000000044
tp1
a(I0
I184
F0.95
tp2
a(I1
I183
F1.0
tp3
a(I2
I175
F0.95
tp4
a(I2
I183
F0.050000000000000044
tp5
a.(lp0
(I0
F0.0
tp1
a(I1
F0.0
tp2
a(I2
F0.0
tp3
a.(lp0
(I0
I185
I1
tp1
a(I1
I185
F1.0
tp2
a(I2
I176
F0.95
tp3
a(I2
I185
F0.050000000000000044
tp4
a.(lp0
(I0
I18
tp1
a(I1
I18
tp2
a(I2
I18
tp3
a.(lp0
(I0
I185
I1
tp1
a(I1
I185
F1.0
tp2
a(I2
I176
F0.95
tp3
a(I2
I185
F0.050000000000000044
tp4
a.(lp0
(I0
F0.0
tp1
a(I1
F0.0
tp2
a(I2
F0.0
tp3
a.(lp0
(I0
I186
F0.050000000000000044
tp1
a(I0
I187
F0.95
tp2
a(I1
I186
F1.0
tp3
a(I2
I178
F0.95
tp4
a(I2
I186
F0.050000000000000044
tp5
a.(lp0
(I0
F0.0
tp1
a(I1
F0.0
tp2
a(I2
F0.0
tp3
a.(lp0
(I0
I189
F0.050000000000000044
tp1
a(I0
I191
F0.95
tp2
a(I1
I189
F0.050000000000000044
tp3
a(I1
I193
F0.95
tp4
a(I2
I189
F1.0
tp5
a.(lp0
(I0
F0.0
tp1
a(I1
F0.0
tp2
a(I2
F0.0
tp3
a.(lp0
(I0
I192
I1
tp1
a(I1
I192
F0.050000000000000044
tp2
a(I1
I197
F0.95
tp3
a(I2
I192
F1.0
tp4
a.(lp0
(I0
I15
tp1
a(I1
I15
tp2
a(I2
I15
tp3
a.(lp0
(I0
I193
F0.050000000000000044
tp1
a(I0
I195
F0.95
tp2
a(I1
I193
F0.050000000000000044
tp3
a(I1
I198
F0.95
tp4
a(I2
I189
F0.95
tp5
a(I2
I193
F0.050000000000000044
tp6
a.(lp0
(I0
F0.0
tp1
a(I1
F0.0
tp2
a(I2
F0.0
tp3
a.(lp0
(I0
I196
I1
tp1
a(I1
I196
F0.050000000000000044
tp2
a(I1
I202
F0.95
tp3
a(I2
I190
F0.95
tp4
a(I2
I196
F0.050000000000000044
tp5
a.(lp0
(I0
I13
tp1
a(I1
I13
tp2
a(I2
I13
tp3
a.(lp0
(I0
I198
F0.050000000000000044
tp1
a(I0
I200
F0.95
tp2
a(I1
I198
F0.050000000000000044
tp3
a(I1
I203
F0.95
tp4
a(I2
I193
F0.95
tp5
a(I2
I198
F0.050000000000000044
tp6
a.(lp0
(I0
F0.0
tp1
a(I1
F0.0
tp2
a(I2
F0.0
tp3
a.(lp0
(I0
I201
I1
tp1
a(I1
I201
F0.050000000000000044
tp2
a(I1
I207
F0.95
tp3
a(I2
I194
F0.95
tp4
a(I2
I201
F0.050000000000000044
tp5
a.(lp0
(I0
I5
tp1
a(I1
I5
tp2
a(I2
I5
tp3
a.(lp0
(I0
I203
F0.050000000000000044
tp1
a(I0
I205
F0.95
tp2
a(I1
I203
F0.050000000000000044
tp3
a(I1
I208
F0.95
tp4
a(I2
I198
F0.95
tp5
a(I2
I203
F0.050000000000000044
tp6
a.(lp0
(I0
F0.0
tp1
a(I1
F0.0
tp2
a(I2
F0.0
tp3
a.(lp0
(I0
I206
I1
tp1
a(I1
I206
F0.050000000000000044
tp2
a(I1
I211
F0.95
tp3
a(I2
I199
F0.95
tp4
a(I2
I206
F0.050000000000000044
tp5
a.(lp0
(I0
I11
tp1
a(I1
I11
tp2
a(I2
I11
tp3
a.(lp0
(I0
I208
F0.050000000000000044
tp1
a(I0
I209
F0.95
tp2
a(I1
I208
F1.0
tp3
a(I2
I203
F0.95
tp4
a(I2
I208
F0.050000000000000044
tp5
a.(lp0
(I0
F0.0
tp1
a(I1
F0.0
tp2
a(I2
F0.0
tp3
a.(lp0
(I0
I210
I1
tp1
a(I1
I210
F1.0
tp2
a(I2
I204
F0.95
tp3
a(I2
I210
F0.050000000000000044
tp4
a.(lp0
(I0
I18
tp1
a(I1
I18
tp2
a(I2
I18
tp3
a.(lp0
(I0
I212
F0.050000000000000044
tp1
a(I0
I213
F0.95
tp2
a(I1
I212
F0.050000000000000044
tp3
a(I1
I214
F0.95
tp4
a(I2
I212
F1.0
tp5
a.(lp0
(I0
F0.0
tp1
a(I1
F0.0
tp2
a(I2
F0.0
tp3
a.(lp0
(I0
I214
F0.050000000000000044
tp1
a(I0
I215
F0.95
tp2
a(I1
I214
F0.050000000000000044
tp3
a(I1
I216
F0.95
tp4
a(I2
I212
F0.95
tp5
a(I2
I214
F0.050000000000000044
tp6
a.(lp0
(I0
F0.0
tp1
a(I1
F0.0
tp2
a(I2
F0.0
tp3
a.(lp0
(I0
I216
F0.050000000000000044
tp1
a(I0
I217
F0.95
tp2
a(I1
I216
F0.050000000000000044
tp3
a(I1
I218
F0.95
tp4
a(I2
I214
F0.95
tp5
a(I2
I216
F0.050000000000000044
tp6
a.(lp0
(I0
F0.0
tp1
a(I1
F0.0
tp2
a(I2
F0.0
tp3
a.(lp0
(I0
I218
F0.050000000000000044
tp1
a(I0
I219
F0.95
tp2
a(I1
I218
F0.050000000000000044
tp3
a(I1
I220
F0.95
tp4
a(I2
I216
F0.95
tp5
a(I2
I218
F0.050000000000000044
tp6
a.(lp0
(I0
F0.0
tp1
a(I1
F0.0
tp2
a(I2
F0.0
tp3
a.(lp0
(I0
I220
F0.050000000000000044
tp1
a(I0
I221
F0.95
tp2
a(I1
I220
F1.0
tp3
a(I2
I218
F0.95
tp4
a(I2
I220
F0.050000000000000044
tp5
a.(lp0
(I0
F0.0
tp1
a(I1
F0.0
tp2
a(I2
F0.0
tp3
a.