(lp0
(iState
State
p1
(dp2
S'index'
p3
I0
sS'possibleActions'
p4
(lp5
(iAction
Action
p6
(dp7
g3
I0
sS'name'
p8
S'Inspect'
p9
sba(iAction
Action
p10
(dp11
g3
I1
sg8
S'Next'
p12
sba(iAction
Action
p13
(dp14
g3
I2
sg8
S'Previous'
p15
sbasS'transition'
p16
(lp17
(I0
I0
I1
tp18
a(I1
I0
I1
tp19
a(I2
I0
I1
tp20
asS'dold'
p21
NsS'dvals'
p22
NsS'time'
p23
NsS'reward'
p24
(lp25
(I0
F0.0
tp26
a(I1
F0.0
tp27
a(I2
F0.0
tp28
asS'location'
p29
Nsba(iState
State
p30
(dp31
g3
I1
sg4
g5
sg16
(lp32
(I0
I0
I1
tp33
a(I1
I0
I1
tp34
a(I2
I0
I1
tp35
asg21
I0
sg22
(I0
I0
I0
I0
tp36
sg23
I0
sg24
(lp37
(I0
F0.0
tp38
a(I1
F0.0
tp39
a(I2
F0.0
tp40
asg29
I0
sba(iState
State
p41
(dp42
g3
I2
sg4
g5
sg16
(lp43
(I0
I0
I1
tp44
a(I1
I0
I1
tp45
a(I2
I0
I1
tp46
asg21
I0
sg22
(I1
I0
I0
I0
tp47
sg23
I0
sg24
(lp48
(I0
I9
tp49
a(I1
I9
tp50
a(I2
I9
tp51
asg29
I0
sba(iState
State
p52
(dp53
g3
I3
sg4
g5
sg16
(lp54
(I0
I0
I1
tp55
a(I1
I0
I1
tp56
a(I2
I0
I1
tp57
asg21
I1
sg22
g47
sg23
I0
sg24
(lp58
(I0
F0.0
tp59
a(I1
F0.0
tp60
a(I2
F0.0
tp61
asg29
I0
sba(iState
State
p62
(dp63
g3
I4
sg4
g5
sg16
(lp64
(I0
I0
I1
tp65
a(I1
I0
I1
tp66
a(I2
I0
I1
tp67
asg21
I0
sg22
g36
sg23
I0
sg24
(lp68
(I0
F0.0
tp69
a(I1
F0.0
tp70
a(I2
F0.0
tp71
asg29
I1
sba(iState
State
p72
(dp73
g3
I5
sg4
g5
sg16
(lp74
(I0
I0
I1
tp75
a(I1
I0
I1
tp76
a(I2
I0
I1
tp77
asg21
I0
sg22
(I0
I1
I0
I0
tp78
sg23
I0
sg24
(lp79
(I0
I8
tp80
a(I1
I8
tp81
a(I2
I8
tp82
asg29
I1
sba(iState
State
p83
(dp84
g3
I6
sg4
g5
sg16
(lp85
(I0
I0
I1
tp86
a(I1
I0
I1
tp87
a(I2
I0
I1
tp88
asg21
I1
sg22
g78
sg23
I0
sg24
(lp89
(I0
F0.0
tp90
a(I1
F0.0
tp91
a(I2
F0.0
tp92
asg29
I1
sba(iState
State
p93
(dp94
g3
I7
sg4
g5
sg16
(lp95
(I0
I0
I1
tp96
a(I1
I0
I1
tp97
a(I2
I0
I1
tp98
asg21
I0
sg22
g36
sg23
I0
sg24
(lp99
(I0
F0.0
tp100
a(I1
F0.0
tp101
a(I2
F0.0
tp102
asg29
I2
sba(iState
State
p103
(dp104
g3
I8
sg4
g5
sg16
(lp105
(I0
I0
I1
tp106
a(I1
I0
I1
tp107
a(I2
I0
I1
tp108
asg21
I0
sg22
(I0
I0
I1
I0
tp109
sg23
I0
sg24
(lp110
(I0
I19
tp111
a(I1
I19
tp112
a(I2
I19
tp113
asg29
I2
sba(iState
State
p114
(dp115
g3
I9
sg4
g5
sg16
(lp116
(I0
I0
I1
tp117
a(I1
I0
I1
tp118
a(I2
I0
I1
tp119
asg21
I1
sg22
g109
sg23
I0
sg24
(lp120
(I0
F0.0
tp121
a(I1
F0.0
tp122
a(I2
F0.0
tp123
asg29
I2
sba(iState
State
p124
(dp125
g3
I10
sg4
g5
sg16
(lp126
(I0
I0
I1
tp127
a(I1
I0
I1
tp128
a(I2
I0
I1
tp129
asg21
I0
sg22
g36
sg23
I0
sg24
(lp130
(I0
F0.0
tp131
a(I1
F0.0
tp132
a(I2
F0.0
tp133
asg29
I3
sba(iState
State
p134
(dp135
g3
I11
sg4
g5
sg16
(lp136
(I0
I0
I1
tp137
a(I1
I0
I1
tp138
a(I2
I0
I1
tp139
asg21
I0
sg22
(I0
I0
I0
I1
tp140
sg23
I0
sg24
(lp141
(I0
I12
tp142
a(I1
I12
tp143
a(I2
I12
tp144
asg29
I3
sba(iState
State
p145
(dp146
g3
I12
sg4
g5
sg16
(lp147
(I0
I0
I1
tp148
a(I1
I0
I1
tp149
a(I2
I0
I1
tp150
asg21
I1
sg22
g140
sg23
I0
sg24
(lp151
(I0
F0.0
tp152
a(I1
F0.0
tp153
a(I2
F0.0
tp154
asg29
I3
sba(iState
State
p155
(dp156
g3
I13
sg4
g5
sg16
(lp157
(I0
I1
F0.050000000000000044
tp158
a(I0
I2
F0.95
tp159
a(I1
I1
F0.050000000000000044
tp160
a(I1
I4
F0.95
tp161
a(I2
I1
F1.0
tp162
asg21
I0
sg22
g36
sg23
I8
sg24
(lp163
(I0
F0.0
tp164
a(I1
F0.0
tp165
a(I2
F0.0
tp166
asg29
I0
sba(iState
State
p167
(dp168
g3
I14
sg4
g5
sg16
(lp169
(I0
I1
F0.050000000000000044
tp170
a(I0
I2
F0.95
tp171
a(I1
I1
F0.050000000000000044
tp172
a(I1
I4
F0.95
tp173
a(I2
I1
F1.0
tp174
asg21
I0
sg22
g140
sg23
I8
sg24
(lp175
(I0
F0.0
tp176
a(I1
F0.0
tp177
a(I2
F0.0
tp178
asg29
I0
sba(iState
State
p179
(dp180
g3
I15
sg4
g5
sg16
(lp181
(I0
I1
F0.050000000000000044
tp182
a(I0
I2
F0.95
tp183
a(I1
I1
F0.050000000000000044
tp184
a(I1
I4
F0.95
tp185
a(I2
I1
F1.0
tp186
asg21
I0
sg22
g109
sg23
I8
sg24
(lp187
(I0
F0.0
tp188
a(I1
F0.0
tp189
a(I2
F0.0
tp190
asg29
I0
sba(iState
State
p191
(dp192
g3
I16
sg4
g5
sg16
(lp193
(I0
I1
F0.050000000000000044
tp194
a(I0
I2
F0.95
tp195
a(I1
I1
F0.050000000000000044
tp196
a(I1
I4
F0.95
tp197
a(I2
I1
F1.0
tp198
asg21
I0
sg22
g78
sg23
I8
sg24
(lp199
(I0
F0.0
tp200
a(I1
F0.0
tp201
a(I2
F0.0
tp202
asg29
I0
sba(iState
State
p203
(dp204
g3
I17
sg4
g5
sg16
(lp205
(I0
I1
F0.050000000000000044
tp206
a(I0
I2
F0.95
tp207
a(I1
I1
F0.050000000000000044
tp208
a(I1
I4
F0.95
tp209
a(I2
I1
F1.0
tp210
asg21
I0
sg22
(I0
I1
I1
I0
tp211
sg23
I8
sg24
(lp212
(I0
F0.0
tp213
a(I1
F0.0
tp214
a(I2
F0.0
tp215
asg29
I0
sba(iState
State
p216
(dp217
g3
I18
sg4
g5
sg16
(lp218
(I0
I3
I1
tp219
a(I1
I1
F0.050000000000000044
tp220
a(I1
I4
F0.95
tp221
a(I2
I1
F1.0
tp222
asg21
I0
sg22
g47
sg23
I8
sg24
(lp223
(I0
I9
tp224
a(I1
I9
tp225
a(I2
I9
tp226
asg29
I0
sba(iState
State
p227
(dp228
g3
I19
sg4
g5
sg16
(lp229
(I0
I3
I1
tp230
a(I1
I1
F0.050000000000000044
tp231
a(I1
I4
F0.95
tp232
a(I2
I1
F1.0
tp233
asg21
I1
sg22
g47
sg23
I8
sg24
(lp234
(I0
F0.0
tp235
a(I1
F0.0
tp236
a(I2
F0.0
tp237
asg29
I0
sba(iState
State
p238
(dp239
g3
I20
sg4
g5
sg16
(lp240
(I0
I3
I1
tp241
a(I1
I1
F0.050000000000000044
tp242
a(I1
I4
F0.95
tp243
a(I2
I1
F1.0
tp244
asg21
I0
sg22
(I1
I0
I1
I0
tp245
sg23
I8
sg24
(lp246
(I0
I9
tp247
a(I1
I9
tp248
a(I2
I9
tp249
asg29
I0
sba(iState
State
p250
(dp251
g3
I21
sg4
g5
sg16
(lp252
(I0
I3
I1
tp253
a(I1
I1
F0.050000000000000044
tp254
a(I1
I4
F0.95
tp255
a(I2
I1
F1.0
tp256
asg21
I0
sg22
(I1
I1
I0
I0
tp257
sg23
I8
sg24
(lp258
(I0
I9
tp259
a(I1
I9
tp260
a(I2
I9
tp261
asg29
I0
sba(iState
State
p262
(dp263
g3
I22
sg4
g5
sg16
(lp264
(I0
I3
I1
tp265
a(I1
I1
F0.050000000000000044
tp266
a(I1
I4
F0.95
tp267
a(I2
I1
F1.0
tp268
asg21
I1
sg22
g257
sg23
I8
sg24
(lp269
(I0
F0.0
tp270
a(I1
F0.0
tp271
a(I2
F0.0
tp272
asg29
I0
sba(iState
State
p273
(dp274
g3
I23
sg4
g5
sg16
(lp275
(I0
I4
F0.050000000000000044
tp276
a(I0
I5
F0.95
tp277
a(I1
I4
F0.050000000000000044
tp278
a(I1
I7
F0.95
tp279
a(I2
I1
F0.95
tp280
a(I2
I4
F0.050000000000000044
tp281
asg21
I0
sg22
g36
sg23
I8
sg24
(lp282
(I0
F0.0
tp283
a(I1
F0.0
tp284
a(I2
F0.0
tp285
asg29
I1
sba(iState
State
p286
(dp287
g3
I24
sg4
g5
sg16
(lp288
(I0
I4
F0.050000000000000044
tp289
a(I0
I5
F0.95
tp290
a(I1
I4
F0.050000000000000044
tp291
a(I1
I7
F0.95
tp292
a(I2
I1
F0.95
tp293
a(I2
I4
F0.050000000000000044
tp294
asg21
I0
sg22
g140
sg23
I8
sg24
(lp295
(I0
F0.0
tp296
a(I1
F0.0
tp297
a(I2
F0.0
tp298
asg29
I1
sba(iState
State
p299
(dp300
g3
I25
sg4
g5
sg16
(lp301
(I0
I4
F0.050000000000000044
tp302
a(I0
I5
F0.95
tp303
a(I1
I4
F0.050000000000000044
tp304
a(I1
I7
F0.95
tp305
a(I2
I1
F0.95
tp306
a(I2
I4
F0.050000000000000044
tp307
asg21
I0
sg22
g109
sg23
I8
sg24
(lp308
(I0
F0.0
tp309
a(I1
F0.0
tp310
a(I2
F0.0
tp311
asg29
I1
sba(iState
State
p312
(dp313
g3
I26
sg4
g5
sg16
(lp314
(I0
I4
F0.050000000000000044
tp315
a(I0
I5
F0.95
tp316
a(I1
I4
F0.050000000000000044
tp317
a(I1
I7
F0.95
tp318
a(I2
I1
F0.95
tp319
a(I2
I4
F0.050000000000000044
tp320
asg21
I0
sg22
(I0
I0
I1
I1
tp321
sg23
I8
sg24
(lp322
(I0
F0.0
tp323
a(I1
F0.0
tp324
a(I2
F0.0
tp325
asg29
I1
sba(iState
State
p326
(dp327
g3
I27
sg4
g5
sg16
(lp328
(I0
I6
I1
tp329
a(I1
I4
F0.050000000000000044
tp330
a(I1
I7
F0.95
tp331
a(I2
I1
F0.95
tp332
a(I2
I4
F0.050000000000000044
tp333
asg21
I0
sg22
g78
sg23
I8
sg24
(lp334
(I0
I8
tp335
a(I1
I8
tp336
a(I2
I8
tp337
asg29
I1
sba(iState
State
p338
(dp339
g3
I28
sg4
g5
sg16
(lp340
(I0
I6
I1
tp341
a(I1
I4
F0.050000000000000044
tp342
a(I1
I7
F0.95
tp343
a(I2
I1
F0.95
tp344
a(I2
I4
F0.050000000000000044
tp345
asg21
I1
sg22
g78
sg23
I8
sg24
(lp346
(I0
F0.0
tp347
a(I1
F0.0
tp348
a(I2
F0.0
tp349
asg29
I1
sba(iState
State
p350
(dp351
g3
I29
sg4
g5
sg16
(lp352
(I0
I6
I1
tp353
a(I1
I4
F0.050000000000000044
tp354
a(I1
I7
F0.95
tp355
a(I2
I1
F0.95
tp356
a(I2
I4
F0.050000000000000044
tp357
asg21
I0
sg22
(I0
I1
I0
I1
tp358
sg23
I8
sg24
(lp359
(I0
I8
tp360
a(I1
I8
tp361
a(I2
I8
tp362
asg29
I1
sba(iState
State
p363
(dp364
g3
I30
sg4
g5
sg16
(lp365
(I0
I6
I1
tp366
a(I1
I4
F0.050000000000000044
tp367
a(I1
I7
F0.95
tp368
a(I2
I1
F0.95
tp369
a(I2
I4
F0.050000000000000044
tp370
asg21
I0
sg22
g211
sg23
I8
sg24
(lp371
(I0
I8
tp372
a(I1
I8
tp373
a(I2
I8
tp374
asg29
I1
sba(iState
State
p375
(dp376
g3
I31
sg4
g5
sg16
(lp377
(I0
I6
I1
tp378
a(I1
I4
F0.050000000000000044
tp379
a(I1
I7
F0.95
tp380
a(I2
I1
F0.95
tp381
a(I2
I4
F0.050000000000000044
tp382
asg21
I1
sg22
g211
sg23
I8
sg24
(lp383
(I0
F0.0
tp384
a(I1
F0.0
tp385
a(I2
F0.0
tp386
asg29
I1
sba(iState
State
p387
(dp388
g3
I32
sg4
g5
sg16
(lp389
(I0
I4
F0.050000000000000044
tp390
a(I0
I5
F0.95
tp391
a(I1
I4
F0.050000000000000044
tp392
a(I1
I7
F0.95
tp393
a(I2
I1
F0.95
tp394
a(I2
I4
F0.050000000000000044
tp395
asg21
I0
sg22
g47
sg23
I8
sg24
(lp396
(I0
F0.0
tp397
a(I1
F0.0
tp398
a(I2
F0.0
tp399
asg29
I1
sba(iState
State
p400
(dp401
g3
I33
sg4
g5
sg16
(lp402
(I0
I6
I1
tp403
a(I1
I4
F0.050000000000000044
tp404
a(I1
I7
F0.95
tp405
a(I2
I1
F0.95
tp406
a(I2
I4
F0.050000000000000044
tp407
asg21
I0
sg22
g257
sg23
I8
sg24
(lp408
(I0
I8
tp409
a(I1
I8
tp410
a(I2
I8
tp411
asg29
I1
sba(iState
State
p412
(dp413
g3
I34
sg4
g5
sg16
(lp414
(I0
I6
I1
tp415
a(I1
I4
F0.050000000000000044
tp416
a(I1
I7
F0.95
tp417
a(I2
I1
F0.95
tp418
a(I2
I4
F0.050000000000000044
tp419
asg21
I1
sg22
g257
sg23
I8
sg24
(lp420
(I0
F0.0
tp421
a(I1
F0.0
tp422
a(I2
F0.0
tp423
asg29
I1
sba(iState
State
p424
(dp425
g3
I35
sg4
g5
sg16
(lp426
(I0
I7
F0.050000000000000044
tp427
a(I0
I8
F0.95
tp428
a(I1
I7
F0.050000000000000044
tp429
a(I1
I10
F0.95
tp430
a(I2
I4
F0.95
tp431
a(I2
I7
F0.050000000000000044
tp432
asg21
I0
sg22
g36
sg23
I8
sg24
(lp433
(I0
F0.0
tp434
a(I1
F0.0
tp435
a(I2
F0.0
tp436
asg29
I2
sba(iState
State
p437
(dp438
g3
I36
sg4
g5
sg16
(lp439
(I0
I7
F0.050000000000000044
tp440
a(I0
I8
F0.95
tp441
a(I1
I7
F0.050000000000000044
tp442
a(I1
I10
F0.95
tp443
a(I2
I4
F0.95
tp444
a(I2
I7
F0.050000000000000044
tp445
asg21
I0
sg22
g140
sg23
I8
sg24
(lp446
(I0
F0.0
tp447
a(I1
F0.0
tp448
a(I2
F0.0
tp449
asg29
I2
sba(iState
State
p450
(dp451
g3
I37
sg4
g5
sg16
(lp452
(I0
I9
I1
tp453
a(I1
I7
F0.050000000000000044
tp454
a(I1
I10
F0.95
tp455
a(I2
I4
F0.95
tp456
a(I2
I7
F0.050000000000000044
tp457
asg21
I0
sg22
g109
sg23
I8
sg24
(lp458
(I0
I19
tp459
a(I1
I19
tp460
a(I2
I19
tp461
asg29
I2
sba(iState
State
p462
(dp463
g3
I38
sg4
g5
sg16
(lp464
(I0
I9
I1
tp465
a(I1
I7
F0.050000000000000044
tp466
a(I1
I10
F0.95
tp467
a(I2
I4
F0.95
tp468
a(I2
I7
F0.050000000000000044
tp469
asg21
I1
sg22
g109
sg23
I8
sg24
(lp470
(I0
F0.0
tp471
a(I1
F0.0
tp472
a(I2
F0.0
tp473
asg29
I2
sba(iState
State
p474
(dp475
g3
I39
sg4
g5
sg16
(lp476
(I0
I9
I1
tp477
a(I1
I7
F0.050000000000000044
tp478
a(I1
I10
F0.95
tp479
a(I2
I4
F0.95
tp480
a(I2
I7
F0.050000000000000044
tp481
asg21
I0
sg22
g321
sg23
I8
sg24
(lp482
(I0
I19
tp483
a(I1
I19
tp484
a(I2
I19
tp485
asg29
I2
sba(iState
State
p486
(dp487
g3
I40
sg4
g5
sg16
(lp488
(I0
I9
I1
tp489
a(I1
I7
F0.050000000000000044
tp490
a(I1
I10
F0.95
tp491
a(I2
I4
F0.95
tp492
a(I2
I7
F0.050000000000000044
tp493
asg21
I1
sg22
g321
sg23
I8
sg24
(lp494
(I0
F0.0
tp495
a(I1
F0.0
tp496
a(I2
F0.0
tp497
asg29
I2
sba(iState
State
p498
(dp499
g3
I41
sg4
g5
sg16
(lp500
(I0
I7
F0.050000000000000044
tp501
a(I0
I8
F0.95
tp502
a(I1
I7
F0.050000000000000044
tp503
a(I1
I10
F0.95
tp504
a(I2
I4
F0.95
tp505
a(I2
I7
F0.050000000000000044
tp506
asg21
I0
sg22
g78
sg23
I8
sg24
(lp507
(I0
F0.0
tp508
a(I1
F0.0
tp509
a(I2
F0.0
tp510
asg29
I2
sba(iState
State
p511
(dp512
g3
I42
sg4
g5
sg16
(lp513
(I0
I9
I1
tp514
a(I1
I7
F0.050000000000000044
tp515
a(I1
I10
F0.95
tp516
a(I2
I4
F0.95
tp517
a(I2
I7
F0.050000000000000044
tp518
asg21
I0
sg22
g211
sg23
I8
sg24
(lp519
(I0
I19
tp520
a(I1
I19
tp521
a(I2
I19
tp522
asg29
I2
sba(iState
State
p523
(dp524
g3
I43
sg4
g5
sg16
(lp525
(I0
I9
I1
tp526
a(I1
I7
F0.050000000000000044
tp527
a(I1
I10
F0.95
tp528
a(I2
I4
F0.95
tp529
a(I2
I7
F0.050000000000000044
tp530
asg21
I1
sg22
g211
sg23
I8
sg24
(lp531
(I0
F0.0
tp532
a(I1
F0.0
tp533
a(I2
F0.0
tp534
asg29
I2
sba(iState
State
p535
(dp536
g3
I44
sg4
g5
sg16
(lp537
(I0
I7
F0.050000000000000044
tp538
a(I0
I8
F0.95
tp539
a(I1
I7
F0.050000000000000044
tp540
a(I1
I10
F0.95
tp541
a(I2
I4
F0.95
tp542
a(I2
I7
F0.050000000000000044
tp543
asg21
I0
sg22
g47
sg23
I8
sg24
(lp544
(I0
F0.0
tp545
a(I1
F0.0
tp546
a(I2
F0.0
tp547
asg29
I2
sba(iState
State
p548
(dp549
g3
I45
sg4
g5
sg16
(lp550
(I0
I9
I1
tp551
a(I1
I7
F0.050000000000000044
tp552
a(I1
I10
F0.95
tp553
a(I2
I4
F0.95
tp554
a(I2
I7
F0.050000000000000044
tp555
asg21
I0
sg22
g245
sg23
I8
sg24
(lp556
(I0
I19
tp557
a(I1
I19
tp558
a(I2
I19
tp559
asg29
I2
sba(iState
State
p560
(dp561
g3
I46
sg4
g5
sg16
(lp562
(I0
I7
F0.050000000000000044
tp563
a(I0
I8
F0.95
tp564
a(I1
I7
F0.050000000000000044
tp565
a(I1
I10
F0.95
tp566
a(I2
I4
F0.95
tp567
a(I2
I7
F0.050000000000000044
tp568
asg21
I0
sg22
g257
sg23
I8
sg24
(lp569
(I0
F0.0
tp570
a(I1
F0.0
tp571
a(I2
F0.0
tp572
asg29
I2
sba(iState
State
p573
(dp574
g3
I47
sg4
g5
sg16
(lp575
(I0
I10
F0.050000000000000044
tp576
a(I0
I11
F0.95
tp577
a(I1
I10
F1.0
tp578
a(I2
I7
F0.95
tp579
a(I2
I10
F0.050000000000000044
tp580
asg21
I0
sg22
g36
sg23
I8
sg24
(lp581
(I0
F0.0
tp582
a(I1
F0.0
tp583
a(I2
F0.0
tp584
asg29
I3
sba(iState
State
p585
(dp586
g3
I48
sg4
g5
sg16
(lp587
(I0
I12
I1
tp588
a(I1
I10
F1.0
tp589
a(I2
I7
F0.95
tp590
a(I2
I10
F0.050000000000000044
tp591
asg21
I0
sg22
g140
sg23
I8
sg24
(lp592
(I0
I12
tp593
a(I1
I12
tp594
a(I2
I12
tp595
asg29
I3
sba(iState
State
p596
(dp597
g3
I49
sg4
g5
sg16
(lp598
(I0
I12
I1
tp599
a(I1
I10
F1.0
tp600
a(I2
I7
F0.95
tp601
a(I2
I10
F0.050000000000000044
tp602
asg21
I1
sg22
g140
sg23
I8
sg24
(lp603
(I0
F0.0
tp604
a(I1
F0.0
tp605
a(I2
F0.0
tp606
asg29
I3
sba(iState
State
p607
(dp608
g3
I50
sg4
g5
sg16
(lp609
(I0
I10
F0.050000000000000044
tp610
a(I0
I11
F0.95
tp611
a(I1
I10
F1.0
tp612
a(I2
I7
F0.95
tp613
a(I2
I10
F0.050000000000000044
tp614
asg21
I0
sg22
g109
sg23
I8
sg24
(lp615
(I0
F0.0
tp616
a(I1
F0.0
tp617
a(I2
F0.0
tp618
asg29
I3
sba(iState
State
p619
(dp620
g3
I51
sg4
g5
sg16
(lp621
(I0
I12
I1
tp622
a(I1
I10
F1.0
tp623
a(I2
I7
F0.95
tp624
a(I2
I10
F0.050000000000000044
tp625
asg21
I0
sg22
g321
sg23
I8
sg24
(lp626
(I0
I12
tp627
a(I1
I12
tp628
a(I2
I12
tp629
asg29
I3
sba(iState
State
p630
(dp631
g3
I52
sg4
g5
sg16
(lp632
(I0
I12
I1
tp633
a(I1
I10
F1.0
tp634
a(I2
I7
F0.95
tp635
a(I2
I10
F0.050000000000000044
tp636
asg21
I1
sg22
g321
sg23
I8
sg24
(lp637
(I0
F0.0
tp638
a(I1
F0.0
tp639
a(I2
F0.0
tp640
asg29
I3
sba(iState
State
p641
(dp642
g3
I53
sg4
g5
sg16
(lp643
(I0
I10
F0.050000000000000044
tp644
a(I0
I11
F0.95
tp645
a(I1
I10
F1.0
tp646
a(I2
I7
F0.95
tp647
a(I2
I10
F0.050000000000000044
tp648
asg21
I0
sg22
g78
sg23
I8
sg24
(lp649
(I0
F0.0
tp650
a(I1
F0.0
tp651
a(I2
F0.0
tp652
asg29
I3
sba(iState
State
p653
(dp654
g3
I54
sg4
g5
sg16
(lp655
(I0
I12
I1
tp656
a(I1
I10
F1.0
tp657
a(I2
I7
F0.95
tp658
a(I2
I10
F0.050000000000000044
tp659
asg21
I0
sg22
g358
sg23
I8
sg24
(lp660
(I0
I12
tp661
a(I1
I12
tp662
a(I2
I12
tp663
asg29
I3
sba(iState
State
p664
(dp665
g3
I55
sg4
g5
sg16
(lp666
(I0
I10
F0.050000000000000044
tp667
a(I0
I11
F0.95
tp668
a(I1
I10
F1.0
tp669
a(I2
I7
F0.95
tp670
a(I2
I10
F0.050000000000000044
tp671
asg21
I0
sg22
g211
sg23
I8
sg24
(lp672
(I0
F0.0
tp673
a(I1
F0.0
tp674
a(I2
F0.0
tp675
asg29
I3
sba(iState
State
p676
(dp677
g3
I56
sg4
g5
sg16
(lp678
(I0
I10
F0.050000000000000044
tp679
a(I0
I11
F0.95
tp680
a(I1
I10
F1.0
tp681
a(I2
I7
F0.95
tp682
a(I2
I10
F0.050000000000000044
tp683
asg21
I0
sg22
g47
sg23
I8
sg24
(lp684
(I0
F0.0
tp685
a(I1
F0.0
tp686
a(I2
F0.0
tp687
asg29
I3
sba(iState
State
p688
(dp689
g3
I57
sg4
g5
sg16
(lp690
(I0
I13
F0.050000000000000044
tp691
a(I0
I18
F0.95
tp692
a(I1
I13
F0.050000000000000044
tp693
a(I1
I23
F0.95
tp694
a(I2
I13
F1.0
tp695
asg21
I0
sg22
g36
sg23
I16
sg24
(lp696
(I0
F0.0
tp697
a(I1
F0.0
tp698
a(I2
F0.0
tp699
asg29
I0
sba(iState
State
p700
(dp701
g3
I58
sg4
g5
sg16
(lp702
(I0
I15
F0.050000000000000044
tp703
a(I0
I20
F0.95
tp704
a(I1
I15
F0.050000000000000044
tp705
a(I1
I25
F0.95
tp706
a(I2
I15
F1.0
tp707
asg21
I0
sg22
g109
sg23
I16
sg24
(lp708
(I0
F0.0
tp709
a(I1
F0.0
tp710
a(I2
F0.0
tp711
asg29
I0
sba(iState
State
p712
(dp713
g3
I59
sg4
g5
sg16
(lp714
(I0
I16
F0.050000000000000044
tp715
a(I0
I21
F0.95
tp716
a(I1
I16
F0.050000000000000044
tp717
a(I1
I28
F0.95
tp718
a(I2
I16
F1.0
tp719
asg21
I0
sg22
g78
sg23
I16
sg24
(lp720
(I0
F0.0
tp721
a(I1
F0.0
tp722
a(I2
F0.0
tp723
asg29
I0
sba(iState
State
p724
(dp725
g3
I60
sg4
g5
sg16
(lp726
(I0
I19
I1
tp727
a(I1
I19
F0.050000000000000044
tp728
a(I1
I32
F0.95
tp729
a(I2
I19
F1.0
tp730
asg21
I0
sg22
g47
sg23
I16
sg24
(lp731
(I0
I9
tp732
a(I1
I9
tp733
a(I2
I9
tp734
asg29
I0
sba(iState
State
p735
(dp736
g3
I61
sg4
g5
sg16
(lp737
(I0
I19
I1
tp738
a(I1
I19
F0.050000000000000044
tp739
a(I1
I32
F0.95
tp740
a(I2
I19
F1.0
tp741
asg21
I1
sg22
g47
sg23
I16
sg24
(lp742
(I0
F0.0
tp743
a(I1
F0.0
tp744
a(I2
F0.0
tp745
asg29
I0
sba(iState
State
p746
(dp747
g3
I62
sg4
g5
sg16
(lp748
(I0
I22
I1
tp749
a(I1
I22
F0.050000000000000044
tp750
a(I1
I34
F0.95
tp751
a(I2
I22
F1.0
tp752
asg21
I0
sg22
g257
sg23
I16
sg24
(lp753
(I0
I9
tp754
a(I1
I9
tp755
a(I2
I9
tp756
asg29
I0
sba(iState
State
p757
(dp758
g3
I63
sg4
g5
sg16
(lp759
(I0
I23
F0.050000000000000044
tp760
a(I0
I27
F0.95
tp761
a(I1
I23
F0.050000000000000044
tp762
a(I1
I35
F0.95
tp763
a(I2
I13
F0.95
tp764
a(I2
I23
F0.050000000000000044
tp765
asg21
I0
sg22
g36
sg23
I16
sg24
(lp766
(I0
F0.0
tp767
a(I1
F0.0
tp768
a(I2
F0.0
tp769
asg29
I1
sba(iState
State
p770
(dp771
g3
I64
sg4
g5
sg16
(lp772
(I0
I24
F0.050000000000000044
tp773
a(I0
I29
F0.95
tp774
a(I1
I24
F0.050000000000000044
tp775
a(I1
I36
F0.95
tp776
a(I2
I14
F0.95
tp777
a(I2
I24
F0.050000000000000044
tp778
asg21
I0
sg22
g140
sg23
I16
sg24
(lp779
(I0
F0.0
tp780
a(I1
F0.0
tp781
a(I2
F0.0
tp782
asg29
I1
sba(iState
State
p783
(dp784
g3
I65
sg4
g5
sg16
(lp785
(I0
I25
F0.050000000000000044
tp786
a(I0
I30
F0.95
tp787
a(I1
I25
F0.050000000000000044
tp788
a(I1
I38
F0.95
tp789
a(I2
I15
F0.95
tp790
a(I2
I25
F0.050000000000000044
tp791
asg21
I0
sg22
g109
sg23
I16
sg24
(lp792
(I0
F0.0
tp793
a(I1
F0.0
tp794
a(I2
F0.0
tp795
asg29
I1
sba(iState
State
p796
(dp797
g3
I66
sg4
g5
sg16
(lp798
(I0
I28
I1
tp799
a(I1
I28
F0.050000000000000044
tp800
a(I1
I41
F0.95
tp801
a(I2
I16
F0.95
tp802
a(I2
I28
F0.050000000000000044
tp803
asg21
I0
sg22
g78
sg23
I16
sg24
(lp804
(I0
I8
tp805
a(I1
I8
tp806
a(I2
I8
tp807
asg29
I1
sba(iState
State
p808
(dp809
g3
I67
sg4
g5
sg16
(lp810
(I0
I28
I1
tp811
a(I1
I28
F0.050000000000000044
tp812
a(I1
I41
F0.95
tp813
a(I2
I16
F0.95
tp814
a(I2
I28
F0.050000000000000044
tp815
asg21
I1
sg22
g78
sg23
I16
sg24
(lp816
(I0
F0.0
tp817
a(I1
F0.0
tp818
a(I2
F0.0
tp819
asg29
I1
sba(iState
State
p820
(dp821
g3
I68
sg4
g5
sg16
(lp822
(I0
I31
I1
tp823
a(I1
I31
F0.050000000000000044
tp824
a(I1
I43
F0.95
tp825
a(I2
I17
F0.95
tp826
a(I2
I31
F0.050000000000000044
tp827
asg21
I0
sg22
g211
sg23
I16
sg24
(lp828
(I0
I8
tp829
a(I1
I8
tp830
a(I2
I8
tp831
asg29
I1
sba(iState
State
p832
(dp833
g3
I69
sg4
g5
sg16
(lp834
(I0
I32
F0.050000000000000044
tp835
a(I0
I33
F0.95
tp836
a(I1
I32
F0.050000000000000044
tp837
a(I1
I44
F0.95
tp838
a(I2
I19
F0.95
tp839
a(I2
I32
F0.050000000000000044
tp840
asg21
I0
sg22
g47
sg23
I16
sg24
(lp841
(I0
F0.0
tp842
a(I1
F0.0
tp843
a(I2
F0.0
tp844
asg29
I1
sba(iState
State
p845
(dp846
g3
I70
sg4
g5
sg16
(lp847
(I0
I34
I1
tp848
a(I1
I34
F0.050000000000000044
tp849
a(I1
I46
F0.95
tp850
a(I2
I22
F0.95
tp851
a(I2
I34
F0.050000000000000044
tp852
asg21
I0
sg22
g257
sg23
I16
sg24
(lp853
(I0
I8
tp854
a(I1
I8
tp855
a(I2
I8
tp856
asg29
I1
sba(iState
State
p857
(dp858
g3
I71
sg4
g5
sg16
(lp859
(I0
I35
F0.050000000000000044
tp860
a(I0
I37
F0.95
tp861
a(I1
I35
F0.050000000000000044
tp862
a(I1
I47
F0.95
tp863
a(I2
I23
F0.95
tp864
a(I2
I35
F0.050000000000000044
tp865
asg21
I0
sg22
g36
sg23
I16
sg24
(lp866
(I0
F0.0
tp867
a(I1
F0.0
tp868
a(I2
F0.0
tp869
asg29
I2
sba(iState
State
p870
(dp871
g3
I72
sg4
g5
sg16
(lp872
(I0
I36
F0.050000000000000044
tp873
a(I0
I39
F0.95
tp874
a(I1
I36
F0.050000000000000044
tp875
a(I1
I49
F0.95
tp876
a(I2
I24
F0.95
tp877
a(I2
I36
F0.050000000000000044
tp878
asg21
I0
sg22
g140
sg23
I16
sg24
(lp879
(I0
F0.0
tp880
a(I1
F0.0
tp881
a(I2
F0.0
tp882
asg29
I2
sba(iState
State
p883
(dp884
g3
I73
sg4
g5
sg16
(lp885
(I0
I38
I1
tp886
a(I1
I38
F0.050000000000000044
tp887
a(I1
I50
F0.95
tp888
a(I2
I25
F0.95
tp889
a(I2
I38
F0.050000000000000044
tp890
asg21
I0
sg22
g109
sg23
I16
sg24
(lp891
(I0
I19
tp892
a(I1
I19
tp893
a(I2
I19
tp894
asg29
I2
sba(iState
State
p895
(dp896
g3
I74
sg4
g5
sg16
(lp897
(I0
I38
I1
tp898
a(I1
I38
F0.050000000000000044
tp899
a(I1
I50
F0.95
tp900
a(I2
I25
F0.95
tp901
a(I2
I38
F0.050000000000000044
tp902
asg21
I1
sg22
g109
sg23
I16
sg24
(lp903
(I0
F0.0
tp904
a(I1
F0.0
tp905
a(I2
F0.0
tp906
asg29
I2
sba(iState
State
p907
(dp908
g3
I75
sg4
g5
sg16
(lp909
(I0
I40
I1
tp910
a(I1
I40
F0.050000000000000044
tp911
a(I1
I52
F0.95
tp912
a(I2
I26
F0.95
tp913
a(I2
I40
F0.050000000000000044
tp914
asg21
I0
sg22
g321
sg23
I16
sg24
(lp915
(I0
I19
tp916
a(I1
I19
tp917
a(I2
I19
tp918
asg29
I2
sba(iState
State
p919
(dp920
g3
I76
sg4
g5
sg16
(lp921
(I0
I41
F0.050000000000000044
tp922
a(I0
I42
F0.95
tp923
a(I1
I41
F0.050000000000000044
tp924
a(I1
I53
F0.95
tp925
a(I2
I28
F0.95
tp926
a(I2
I41
F0.050000000000000044
tp927
asg21
I0
sg22
g78
sg23
I16
sg24
(lp928
(I0
F0.0
tp929
a(I1
F0.0
tp930
a(I2
F0.0
tp931
asg29
I2
sba(iState
State
p932
(dp933
g3
I77
sg4
g5
sg16
(lp934
(I0
I43
I1
tp935
a(I1
I43
F0.050000000000000044
tp936
a(I1
I55
F0.95
tp937
a(I2
I31
F0.95
tp938
a(I2
I43
F0.050000000000000044
tp939
asg21
I0
sg22
g211
sg23
I16
sg24
(lp940
(I0
I19
tp941
a(I1
I19
tp942
a(I2
I19
tp943
asg29
I2
sba(iState
State
p944
(dp945
g3
I78
sg4
g5
sg16
(lp946
(I0
I44
F0.050000000000000044
tp947
a(I0
I45
F0.95
tp948
a(I1
I44
F0.050000000000000044
tp949
a(I1
I56
F0.95
tp950
a(I2
I32
F0.95
tp951
a(I2
I44
F0.050000000000000044
tp952
asg21
I0
sg22
g47
sg23
I16
sg24
(lp953
(I0
F0.0
tp954
a(I1
F0.0
tp955
a(I2
F0.0
tp956
asg29
I2
sba(iState
State
p957
(dp958
g3
I79
sg4
g5
sg16
(lp959
(I0
I47
F0.050000000000000044
tp960
a(I0
I48
F0.95
tp961
a(I1
I47
F1.0
tp962
a(I2
I35
F0.95
tp963
a(I2
I47
F0.050000000000000044
tp964
asg21
I0
sg22
g36
sg23
I16
sg24
(lp965
(I0
F0.0
tp966
a(I1
F0.0
tp967
a(I2
F0.0
tp968
asg29
I3
sba(iState
State
p969
(dp970
g3
I80
sg4
g5
sg16
(lp971
(I0
I49
I1
tp972
a(I1
I49
F1.0
tp973
a(I2
I36
F0.95
tp974
a(I2
I49
F0.050000000000000044
tp975
asg21
I0
sg22
g140
sg23
I16
sg24
(lp976
(I0
I12
tp977
a(I1
I12
tp978
a(I2
I12
tp979
asg29
I3
sba(iState
State
p980
(dp981
g3
I81
sg4
g5
sg16
(lp982
(I0
I49
I1
tp983
a(I1
I49
F1.0
tp984
a(I2
I36
F0.95
tp985
a(I2
I49
F0.050000000000000044
tp986
asg21
I1
sg22
g140
sg23
I16
sg24
(lp987
(I0
F0.0
tp988
a(I1
F0.0
tp989
a(I2
F0.0
tp990
asg29
I3
sba(iState
State
p991
(dp992
g3
I82
sg4
g5
sg16
(lp993
(I0
I50
F0.050000000000000044
tp994
a(I0
I51
F0.95
tp995
a(I1
I50
F1.0
tp996
a(I2
I38
F0.95
tp997
a(I2
I50
F0.050000000000000044
tp998
asg21
I0
sg22
g109
sg23
I16
sg24
(lp999
(I0
F0.0
tp1000
a(I1
F0.0
tp1001
a(I2
F0.0
tp1002
asg29
I3
sba(iState
State
p1003
(dp1004
g3
I83
sg4
g5
sg16
(lp1005
(I0
I52
I1
tp1006
a(I1
I52
F1.0
tp1007
a(I2
I40
F0.95
tp1008
a(I2
I52
F0.050000000000000044
tp1009
asg21
I0
sg22
g321
sg23
I16
sg24
(lp1010
(I0
I12
tp1011
a(I1
I12
tp1012
a(I2
I12
tp1013
asg29
I3
sba(iState
State
p1014
(dp1015
g3
I84
sg4
g5
sg16
(lp1016
(I0
I53
F0.050000000000000044
tp1017
a(I0
I54
F0.95
tp1018
a(I1
I53
F1.0
tp1019
a(I2
I41
F0.95
tp1020
a(I2
I53
F0.050000000000000044
tp1021
asg21
I0
sg22
g78
sg23
I16
sg24
(lp1022
(I0
F0.0
tp1023
a(I1
F0.0
tp1024
a(I2
F0.0
tp1025
asg29
I3
sba(iState
State
p1026
(dp1027
g3
I85
sg4
g5
sg16
(lp1028
(I0
I57
F0.050000000000000044
tp1029
a(I0
I60
F0.95
tp1030
a(I1
I57
F0.050000000000000044
tp1031
a(I1
I63
F0.95
tp1032
a(I2
I57
F1.0
tp1033
asg21
I0
sg22
g36
sg23
I24
sg24
(lp1034
(I0
F0.0
tp1035
a(I1
F0.0
tp1036
a(I2
F0.0
tp1037
asg29
I0
sba(iState
State
p1038
(dp1039
g3
I86
sg4
g5
sg16
(lp1040
(I0
I59
F0.050000000000000044
tp1041
a(I0
I62
F0.95
tp1042
a(I1
I59
F0.050000000000000044
tp1043
a(I1
I67
F0.95
tp1044
a(I2
I59
F1.0
tp1045
asg21
I0
sg22
g78
sg23
I24
sg24
(lp1046
(I0
F0.0
tp1047
a(I1
F0.0
tp1048
a(I2
F0.0
tp1049
asg29
I0
sba(iState
State
p1050
(dp1051
g3
I87
sg4
g5
sg16
(lp1052
(I0
I61
I1
tp1053
a(I1
I61
F0.050000000000000044
tp1054
a(I1
I69
F0.95
tp1055
a(I2
I61
F1.0
tp1056
asg21
I0
sg22
g47
sg23
I24
sg24
(lp1057
(I0
I9
tp1058
a(I1
I9
tp1059
a(I2
I9
tp1060
asg29
I0
sba(iState
State
p1061
(dp1062
g3
I88
sg4
g5
sg16
(lp1063
(I0
I61
I1
tp1064
a(I1
I61
F0.050000000000000044
tp1065
a(I1
I69
F0.95
tp1066
a(I2
I61
F1.0
tp1067
asg21
I1
sg22
g47
sg23
I24
sg24
(lp1068
(I0
F0.0
tp1069
a(I1
F0.0
tp1070
a(I2
F0.0
tp1071
asg29
I0
sba(iState
State
p1072
(dp1073
g3
I89
sg4
g5
sg16
(lp1074
(I0
I63
F0.050000000000000044
tp1075
a(I0
I66
F0.95
tp1076
a(I1
I63
F0.050000000000000044
tp1077
a(I1
I71
F0.95
tp1078
a(I2
I57
F0.95
tp1079
a(I2
I63
F0.050000000000000044
tp1080
asg21
I0
sg22
g36
sg23
I24
sg24
(lp1081
(I0
F0.0
tp1082
a(I1
F0.0
tp1083
a(I2
F0.0
tp1084
asg29
I1
sba(iState
State
p1085
(dp1086
g3
I90
sg4
g5
sg16
(lp1087
(I0
I65
F0.050000000000000044
tp1088
a(I0
I68
F0.95
tp1089
a(I1
I65
F0.050000000000000044
tp1090
a(I1
I74
F0.95
tp1091
a(I2
I58
F0.95
tp1092
a(I2
I65
F0.050000000000000044
tp1093
asg21
I0
sg22
g109
sg23
I24
sg24
(lp1094
(I0
F0.0
tp1095
a(I1
F0.0
tp1096
a(I2
F0.0
tp1097
asg29
I1
sba(iState
State
p1098
(dp1099
g3
I91
sg4
g5
sg16
(lp1100
(I0
I67
I1
tp1101
a(I1
I67
F0.050000000000000044
tp1102
a(I1
I76
F0.95
tp1103
a(I2
I59
F0.95
tp1104
a(I2
I67
F0.050000000000000044
tp1105
asg21
I0
sg22
g78
sg23
I24
sg24
(lp1106
(I0
I8
tp1107
a(I1
I8
tp1108
a(I2
I8
tp1109
asg29
I1
sba(iState
State
p1110
(dp1111
g3
I92
sg4
g5
sg16
(lp1112
(I0
I67
I1
tp1113
a(I1
I67
F0.050000000000000044
tp1114
a(I1
I76
F0.95
tp1115
a(I2
I59
F0.95
tp1116
a(I2
I67
F0.050000000000000044
tp1117
asg21
I1
sg22
g78
sg23
I24
sg24
(lp1118
(I0
F0.0
tp1119
a(I1
F0.0
tp1120
a(I2
F0.0
tp1121
asg29
I1
sba(iState
State
p1122
(dp1123
g3
I93
sg4
g5
sg16
(lp1124
(I0
I69
F0.050000000000000044
tp1125
a(I0
I70
F0.95
tp1126
a(I1
I69
F0.050000000000000044
tp1127
a(I1
I78
F0.95
tp1128
a(I2
I61
F0.95
tp1129
a(I2
I69
F0.050000000000000044
tp1130
asg21
I0
sg22
g47
sg23
I24
sg24
(lp1131
(I0
F0.0
tp1132
a(I1
F0.0
tp1133
a(I2
F0.0
tp1134
asg29
I1
sba(iState
State
p1135
(dp1136
g3
I94
sg4
g5
sg16
(lp1137
(I0
I71
F0.050000000000000044
tp1138
a(I0
I73
F0.95
tp1139
a(I1
I71
F0.050000000000000044
tp1140
a(I1
I79
F0.95
tp1141
a(I2
I63
F0.95
tp1142
a(I2
I71
F0.050000000000000044
tp1143
asg21
I0
sg22
g36
sg23
I24
sg24
(lp1144
(I0
F0.0
tp1145
a(I1
F0.0
tp1146
a(I2
F0.0
tp1147
asg29
I2
sba(iState
State
p1148
(dp1149
g3
I95
sg4
g5
sg16
(lp1150
(I0
I72
F0.050000000000000044
tp1151
a(I0
I75
F0.95
tp1152
a(I1
I72
F0.050000000000000044
tp1153
a(I1
I81
F0.95
tp1154
a(I2
I64
F0.95
tp1155
a(I2
I72
F0.050000000000000044
tp1156
asg21
I0
sg22
g140
sg23
I24
sg24
(lp1157
(I0
F0.0
tp1158
a(I1
F0.0
tp1159
a(I2
F0.0
tp1160
asg29
I2
sba(iState
State
p1161
(dp1162
g3
I96
sg4
g5
sg16
(lp1163
(I0
I74
I1
tp1164
a(I1
I74
F0.050000000000000044
tp1165
a(I1
I82
F0.95
tp1166
a(I2
I65
F0.95
tp1167
a(I2
I74
F0.050000000000000044
tp1168
asg21
I0
sg22
g109
sg23
I24
sg24
(lp1169
(I0
I19
tp1170
a(I1
I19
tp1171
a(I2
I19
tp1172
asg29
I2
sba(iState
State
p1173
(dp1174
g3
I97
sg4
g5
sg16
(lp1175
(I0
I74
I1
tp1176
a(I1
I74
F0.050000000000000044
tp1177
a(I1
I82
F0.95
tp1178
a(I2
I65
F0.95
tp1179
a(I2
I74
F0.050000000000000044
tp1180
asg21
I1
sg22
g109
sg23
I24
sg24
(lp1181
(I0
F0.0
tp1182
a(I1
F0.0
tp1183
a(I2
F0.0
tp1184
asg29
I2
sba(iState
State
p1185
(dp1186
g3
I98
sg4
g5
sg16
(lp1187
(I0
I76
F0.050000000000000044
tp1188
a(I0
I77
F0.95
tp1189
a(I1
I76
F0.050000000000000044
tp1190
a(I1
I84
F0.95
tp1191
a(I2
I67
F0.95
tp1192
a(I2
I76
F0.050000000000000044
tp1193
asg21
I0
sg22
g78
sg23
I24
sg24
(lp1194
(I0
F0.0
tp1195
a(I1
F0.0
tp1196
a(I2
F0.0
tp1197
asg29
I2
sba(iState
State
p1198
(dp1199
g3
I99
sg4
g5
sg16
(lp1200
(I0
I79
F0.050000000000000044
tp1201
a(I0
I80
F0.95
tp1202
a(I1
I79
F1.0
tp1203
a(I2
I71
F0.95
tp1204
a(I2
I79
F0.050000000000000044
tp1205
asg21
I0
sg22
g36
sg23
I24
sg24
(lp1206
(I0
F0.0
tp1207
a(I1
F0.0
tp1208
a(I2
F0.0
tp1209
asg29
I3
sba(iState
State
p1210
(dp1211
g3
I100
sg4
g5
sg16
(lp1212
(I0
I81
I1
tp1213
a(I1
I81
F1.0
tp1214
a(I2
I72
F0.95
tp1215
a(I2
I81
F0.050000000000000044
tp1216
asg21
I0
sg22
g140
sg23
I24
sg24
(lp1217
(I0
I12
tp1218
a(I1
I12
tp1219
a(I2
I12
tp1220
asg29
I3
sba(iState
State
p1221
(dp1222
g3
I101
sg4
g5
sg16
(lp1223
(I0
I81
I1
tp1224
a(I1
I81
F1.0
tp1225
a(I2
I72
F0.95
tp1226
a(I2
I81
F0.050000000000000044
tp1227
asg21
I1
sg22
g140
sg23
I24
sg24
(lp1228
(I0
F0.0
tp1229
a(I1
F0.0
tp1230
a(I2
F0.0
tp1231
asg29
I3
sba(iState
State
p1232
(dp1233
g3
I102
sg4
g5
sg16
(lp1234
(I0
I82
F0.050000000000000044
tp1235
a(I0
I83
F0.95
tp1236
a(I1
I82
F1.0
tp1237
a(I2
I74
F0.95
tp1238
a(I2
I82
F0.050000000000000044
tp1239
asg21
I0
sg22
g109
sg23
I24
sg24
(lp1240
(I0
F0.0
tp1241
a(I1
F0.0
tp1242
a(I2
F0.0
tp1243
asg29
I3
sba(iState
State
p1244
(dp1245
g3
I103
sg4
g5
sg16
(lp1246
(I0
I85
F0.050000000000000044
tp1247
a(I0
I87
F0.95
tp1248
a(I1
I85
F0.050000000000000044
tp1249
a(I1
I89
F0.95
tp1250
a(I2
I85
F1.0
tp1251
asg21
I0
sg22
g36
sg23
I32
sg24
(lp1252
(I0
F0.0
tp1253
a(I1
F0.0
tp1254
a(I2
F0.0
tp1255
asg29
I0
sba(iState
State
p1256
(dp1257
g3
I104
sg4
g5
sg16
(lp1258
(I0
I88
I1
tp1259
a(I1
I88
F0.050000000000000044
tp1260
a(I1
I93
F0.95
tp1261
a(I2
I88
F1.0
tp1262
asg21
I0
sg22
g47
sg23
I32
sg24
(lp1263
(I0
I9
tp1264
a(I1
I9
tp1265
a(I2
I9
tp1266
asg29
I0
sba(iState
State
p1267
(dp1268
g3
I105
sg4
g5
sg16
(lp1269
(I0
I88
I1
tp1270
a(I1
I88
F0.050000000000000044
tp1271
a(I1
I93
F0.95
tp1272
a(I2
I88
F1.0
tp1273
asg21
I1
sg22
g47
sg23
I32
sg24
(lp1274
(I0
F0.0
tp1275
a(I1
F0.0
tp1276
a(I2
F0.0
tp1277
asg29
I0
sba(iState
State
p1278
(dp1279
g3
I106
sg4
g5
sg16
(lp1280
(I0
I89
F0.050000000000000044
tp1281
a(I0
I91
F0.95
tp1282
a(I1
I89
F0.050000000000000044
tp1283
a(I1
I94
F0.95
tp1284
a(I2
I85
F0.95
tp1285
a(I2
I89
F0.050000000000000044
tp1286
asg21
I0
sg22
g36
sg23
I32
sg24
(lp1287
(I0
F0.0
tp1288
a(I1
F0.0
tp1289
a(I2
F0.0
tp1290
asg29
I1
sba(iState
State
p1291
(dp1292
g3
I107
sg4
g5
sg16
(lp1293
(I0
I92
I1
tp1294
a(I1
I92
F0.050000000000000044
tp1295
a(I1
I98
F0.95
tp1296
a(I2
I86
F0.95
tp1297
a(I2
I92
F0.050000000000000044
tp1298
asg21
I0
sg22
g78
sg23
I32
sg24
(lp1299
(I0
I8
tp1300
a(I1
I8
tp1301
a(I2
I8
tp1302
asg29
I1
sba(iState
State
p1303
(dp1304
g3
I108
sg4
g5
sg16
(lp1305
(I0
I92
I1
tp1306
a(I1
I92
F0.050000000000000044
tp1307
a(I1
I98
F0.95
tp1308
a(I2
I86
F0.95
tp1309
a(I2
I92
F0.050000000000000044
tp1310
asg21
I1
sg22
g78
sg23
I32
sg24
(lp1311
(I0
F0.0
tp1312
a(I1
F0.0
tp1313
a(I2
F0.0
tp1314
asg29
I1
sba(iState
State
p1315
(dp1316
g3
I109
sg4
g5
sg16
(lp1317
(I0
I94
F0.050000000000000044
tp1318
a(I0
I96
F0.95
tp1319
a(I1
I94
F0.050000000000000044
tp1320
a(I1
I99
F0.95
tp1321
a(I2
I89
F0.95
tp1322
a(I2
I94
F0.050000000000000044
tp1323
asg21
I0
sg22
g36
sg23
I32
sg24
(lp1324
(I0
F0.0
tp1325
a(I1
F0.0
tp1326
a(I2
F0.0
tp1327
asg29
I2
sba(iState
State
p1328
(dp1329
g3
I110
sg4
g5
sg16
(lp1330
(I0
I97
I1
tp1331
a(I1
I97
F0.050000000000000044
tp1332
a(I1
I102
F0.95
tp1333
a(I2
I90
F0.95
tp1334
a(I2
I97
F0.050000000000000044
tp1335
asg21
I0
sg22
g109
sg23
I32
sg24
(lp1336
(I0
I19
tp1337
a(I1
I19
tp1338
a(I2
I19
tp1339
asg29
I2
sba(iState
State
p1340
(dp1341
g3
I111
sg4
g5
sg16
(lp1342
(I0
I97
I1
tp1343
a(I1
I97
F0.050000000000000044
tp1344
a(I1
I102
F0.95
tp1345
a(I2
I90
F0.95
tp1346
a(I2
I97
F0.050000000000000044
tp1347
asg21
I1
sg22
g109
sg23
I32
sg24
(lp1348
(I0
F0.0
tp1349
a(I1
F0.0
tp1350
a(I2
F0.0
tp1351
asg29
I2
sba(iState
State
p1352
(dp1353
g3
I112
sg4
g5
sg16
(lp1354
(I0
I99
F0.050000000000000044
tp1355
a(I0
I100
F0.95
tp1356
a(I1
I99
F1.0
tp1357
a(I2
I94
F0.95
tp1358
a(I2
I99
F0.050000000000000044
tp1359
asg21
I0
sg22
g36
sg23
I32
sg24
(lp1360
(I0
F0.0
tp1361
a(I1
F0.0
tp1362
a(I2
F0.0
tp1363
asg29
I3
sba(iState
State
p1364
(dp1365
g3
I113
sg4
g5
sg16
(lp1366
(I0
I101
I1
tp1367
a(I1
I101
F1.0
tp1368
a(I2
I95
F0.95
tp1369
a(I2
I101
F0.050000000000000044
tp1370
asg21
I0
sg22
g140
sg23
I32
sg24
(lp1371
(I0
I12
tp1372
a(I1
I12
tp1373
a(I2
I12
tp1374
asg29
I3
sba(iState
State
p1375
(dp1376
g3
I114
sg4
g5
sg16
(lp1377
(I0
I101
I1
tp1378
a(I1
I101
F1.0
tp1379
a(I2
I95
F0.95
tp1380
a(I2
I101
F0.050000000000000044
tp1381
asg21
I1
sg22
g140
sg23
I32
sg24
(lp1382
(I0
F0.0
tp1383
a(I1
F0.0
tp1384
a(I2
F0.0
tp1385
asg29
I3
sba(iState
State
p1386
(dp1387
g3
I115
sg4
g5
sg16
(lp1388
(I0
I103
F0.050000000000000044
tp1389
a(I0
I104
F0.95
tp1390
a(I1
I103
F0.050000000000000044
tp1391
a(I1
I106
F0.95
tp1392
a(I2
I103
F1.0
tp1393
asg21
I0
sg22
g36
sg23
I40
sg24
(lp1394
(I0
F0.0
tp1395
a(I1
F0.0
tp1396
a(I2
F0.0
tp1397
asg29
I0
sba(iState
State
p1398
(dp1399
g3
I116
sg4
g5
sg16
(lp1400
(I0
I103
F0.050000000000000044
tp1401
a(I0
I104
F0.95
tp1402
a(I1
I103
F0.050000000000000044
tp1403
a(I1
I106
F0.95
tp1404
a(I2
I103
F1.0
tp1405
asg21
I0
sg22
g109
sg23
I40
sg24
(lp1406
(I0
F0.0
tp1407
a(I1
F0.0
tp1408
a(I2
F0.0
tp1409
asg29
I0
sba(iState
State
p1410
(dp1411
g3
I117
sg4
g5
sg16
(lp1412
(I0
I103
F0.050000000000000044
tp1413
a(I0
I104
F0.95
tp1414
a(I1
I103
F0.050000000000000044
tp1415
a(I1
I106
F0.95
tp1416
a(I2
I103
F1.0
tp1417
asg21
I0
sg22
g78
sg23
I40
sg24
(lp1418
(I0
F0.0
tp1419
a(I1
F0.0
tp1420
a(I2
F0.0
tp1421
asg29
I0
sba(iState
State
p1422
(dp1423
g3
I118
sg4
g5
sg16
(lp1424
(I0
I105
I1
tp1425
a(I1
I103
F0.050000000000000044
tp1426
a(I1
I106
F0.95
tp1427
a(I2
I103
F1.0
tp1428
asg21
I0
sg22
g47
sg23
I40
sg24
(lp1429
(I0
I9
tp1430
a(I1
I9
tp1431
a(I2
I9
tp1432
asg29
I0
sba(iState
State
p1433
(dp1434
g3
I119
sg4
g5
sg16
(lp1435
(I0
I105
I1
tp1436
a(I1
I103
F0.050000000000000044
tp1437
a(I1
I106
F0.95
tp1438
a(I2
I103
F1.0
tp1439
asg21
I1
sg22
g47
sg23
I40
sg24
(lp1440
(I0
F0.0
tp1441
a(I1
F0.0
tp1442
a(I2
F0.0
tp1443
asg29
I0
sba(iState
State
p1444
(dp1445
g3
I120
sg4
g5
sg16
(lp1446
(I0
I105
I1
tp1447
a(I1
I103
F0.050000000000000044
tp1448
a(I1
I106
F0.95
tp1449
a(I2
I103
F1.0
tp1450
asg21
I0
sg22
g257
sg23
I40
sg24
(lp1451
(I0
I9
tp1452
a(I1
I9
tp1453
a(I2
I9
tp1454
asg29
I0
sba(iState
State
p1455
(dp1456
g3
I121
sg4
g5
sg16
(lp1457
(I0
I106
F0.050000000000000044
tp1458
a(I0
I107
F0.95
tp1459
a(I1
I106
F0.050000000000000044
tp1460
a(I1
I109
F0.95
tp1461
a(I2
I103
F0.95
tp1462
a(I2
I106
F0.050000000000000044
tp1463
asg21
I0
sg22
g36
sg23
I40
sg24
(lp1464
(I0
F0.0
tp1465
a(I1
F0.0
tp1466
a(I2
F0.0
tp1467
asg29
I1
sba(iState
State
p1468
(dp1469
g3
I122
sg4
g5
sg16
(lp1470
(I0
I106
F0.050000000000000044
tp1471
a(I0
I107
F0.95
tp1472
a(I1
I106
F0.050000000000000044
tp1473
a(I1
I109
F0.95
tp1474
a(I2
I103
F0.95
tp1475
a(I2
I106
F0.050000000000000044
tp1476
asg21
I0
sg22
g140
sg23
I40
sg24
(lp1477
(I0
F0.0
tp1478
a(I1
F0.0
tp1479
a(I2
F0.0
tp1480
asg29
I1
sba(iState
State
p1481
(dp1482
g3
I123
sg4
g5
sg16
(lp1483
(I0
I106
F0.050000000000000044
tp1484
a(I0
I107
F0.95
tp1485
a(I1
I106
F0.050000000000000044
tp1486
a(I1
I109
F0.95
tp1487
a(I2
I103
F0.95
tp1488
a(I2
I106
F0.050000000000000044
tp1489
asg21
I0
sg22
g109
sg23
I40
sg24
(lp1490
(I0
F0.0
tp1491
a(I1
F0.0
tp1492
a(I2
F0.0
tp1493
asg29
I1
sba(iState
State
p1494
(dp1495
g3
I124
sg4
g5
sg16
(lp1496
(I0
I108
I1
tp1497
a(I1
I106
F0.050000000000000044
tp1498
a(I1
I109
F0.95
tp1499
a(I2
I103
F0.95
tp1500
a(I2
I106
F0.050000000000000044
tp1501
asg21
I0
sg22
g78
sg23
I40
sg24
(lp1502
(I0
I8
tp1503
a(I1
I8
tp1504
a(I2
I8
tp1505
asg29
I1
sba(iState
State
p1506
(dp1507
g3
I125
sg4
g5
sg16
(lp1508
(I0
I108
I1
tp1509
a(I1
I106
F0.050000000000000044
tp1510
a(I1
I109
F0.95
tp1511
a(I2
I103
F0.95
tp1512
a(I2
I106
F0.050000000000000044
tp1513
asg21
I1
sg22
g78
sg23
I40
sg24
(lp1514
(I0
F0.0
tp1515
a(I1
F0.0
tp1516
a(I2
F0.0
tp1517
asg29
I1
sba(iState
State
p1518
(dp1519
g3
I126
sg4
g5
sg16
(lp1520
(I0
I108
I1
tp1521
a(I1
I106
F0.050000000000000044
tp1522
a(I1
I109
F0.95
tp1523
a(I2
I103
F0.95
tp1524
a(I2
I106
F0.050000000000000044
tp1525
asg21
I0
sg22
g211
sg23
I40
sg24
(lp1526
(I0
I8
tp1527
a(I1
I8
tp1528
a(I2
I8
tp1529
asg29
I1
sba(iState
State
p1530
(dp1531
g3
I127
sg4
g5
sg16
(lp1532
(I0
I106
F0.050000000000000044
tp1533
a(I0
I107
F0.95
tp1534
a(I1
I106
F0.050000000000000044
tp1535
a(I1
I109
F0.95
tp1536
a(I2
I103
F0.95
tp1537
a(I2
I106
F0.050000000000000044
tp1538
asg21
I0
sg22
g47
sg23
I40
sg24
(lp1539
(I0
F0.0
tp1540
a(I1
F0.0
tp1541
a(I2
F0.0
tp1542
asg29
I1
sba(iState
State
p1543
(dp1544
g3
I128
sg4
g5
sg16
(lp1545
(I0
I108
I1
tp1546
a(I1
I106
F0.050000000000000044
tp1547
a(I1
I109
F0.95
tp1548
a(I2
I103
F0.95
tp1549
a(I2
I106
F0.050000000000000044
tp1550
asg21
I0
sg22
g257
sg23
I40
sg24
(lp1551
(I0
I8
tp1552
a(I1
I8
tp1553
a(I2
I8
tp1554
asg29
I1
sba(iState
State
p1555
(dp1556
g3
I129
sg4
g5
sg16
(lp1557
(I0
I109
F0.050000000000000044
tp1558
a(I0
I110
F0.95
tp1559
a(I1
I109
F0.050000000000000044
tp1560
a(I1
I112
F0.95
tp1561
a(I2
I106
F0.95
tp1562
a(I2
I109
F0.050000000000000044
tp1563
asg21
I0
sg22
g36
sg23
I40
sg24
(lp1564
(I0
F0.0
tp1565
a(I1
F0.0
tp1566
a(I2
F0.0
tp1567
asg29
I2
sba(iState
State
p1568
(dp1569
g3
I130
sg4
g5
sg16
(lp1570
(I0
I109
F0.050000000000000044
tp1571
a(I0
I110
F0.95
tp1572
a(I1
I109
F0.050000000000000044
tp1573
a(I1
I112
F0.95
tp1574
a(I2
I106
F0.95
tp1575
a(I2
I109
F0.050000000000000044
tp1576
asg21
I0
sg22
g140
sg23
I40
sg24
(lp1577
(I0
F0.0
tp1578
a(I1
F0.0
tp1579
a(I2
F0.0
tp1580
asg29
I2
sba(iState
State
p1581
(dp1582
g3
I131
sg4
g5
sg16
(lp1583
(I0
I111
I1
tp1584
a(I1
I109
F0.050000000000000044
tp1585
a(I1
I112
F0.95
tp1586
a(I2
I106
F0.95
tp1587
a(I2
I109
F0.050000000000000044
tp1588
asg21
I0
sg22
g109
sg23
I40
sg24
(lp1589
(I0
I19
tp1590
a(I1
I19
tp1591
a(I2
I19
tp1592
asg29
I2
sba(iState
State
p1593
(dp1594
g3
I132
sg4
g5
sg16
(lp1595
(I0
I111
I1
tp1596
a(I1
I109
F0.050000000000000044
tp1597
a(I1
I112
F0.95
tp1598
a(I2
I106
F0.95
tp1599
a(I2
I109
F0.050000000000000044
tp1600
asg21
I1
sg22
g109
sg23
I40
sg24
(lp1601
(I0
F0.0
tp1602
a(I1
F0.0
tp1603
a(I2
F0.0
tp1604
asg29
I2
sba(iState
State
p1605
(dp1606
g3
I133
sg4
g5
sg16
(lp1607
(I0
I111
I1
tp1608
a(I1
I109
F0.050000000000000044
tp1609
a(I1
I112
F0.95
tp1610
a(I2
I106
F0.95
tp1611
a(I2
I109
F0.050000000000000044
tp1612
asg21
I0
sg22
g321
sg23
I40
sg24
(lp1613
(I0
I19
tp1614
a(I1
I19
tp1615
a(I2
I19
tp1616
asg29
I2
sba(iState
State
p1617
(dp1618
g3
I134
sg4
g5
sg16
(lp1619
(I0
I109
F0.050000000000000044
tp1620
a(I0
I110
F0.95
tp1621
a(I1
I109
F0.050000000000000044
tp1622
a(I1
I112
F0.95
tp1623
a(I2
I106
F0.95
tp1624
a(I2
I109
F0.050000000000000044
tp1625
asg21
I0
sg22
g78
sg23
I40
sg24
(lp1626
(I0
F0.0
tp1627
a(I1
F0.0
tp1628
a(I2
F0.0
tp1629
asg29
I2
sba(iState
State
p1630
(dp1631
g3
I135
sg4
g5
sg16
(lp1632
(I0
I111
I1
tp1633
a(I1
I109
F0.050000000000000044
tp1634
a(I1
I112
F0.95
tp1635
a(I2
I106
F0.95
tp1636
a(I2
I109
F0.050000000000000044
tp1637
asg21
I0
sg22
g211
sg23
I40
sg24
(lp1638
(I0
I19
tp1639
a(I1
I19
tp1640
a(I2
I19
tp1641
asg29
I2
sba(iState
State
p1642
(dp1643
g3
I136
sg4
g5
sg16
(lp1644
(I0
I109
F0.050000000000000044
tp1645
a(I0
I110
F0.95
tp1646
a(I1
I109
F0.050000000000000044
tp1647
a(I1
I112
F0.95
tp1648
a(I2
I106
F0.95
tp1649
a(I2
I109
F0.050000000000000044
tp1650
asg21
I0
sg22
g47
sg23
I40
sg24
(lp1651
(I0
F0.0
tp1652
a(I1
F0.0
tp1653
a(I2
F0.0
tp1654
asg29
I2
sba(iState
State
p1655
(dp1656
g3
I137
sg4
g5
sg16
(lp1657
(I0
I112
F0.050000000000000044
tp1658
a(I0
I113
F0.95
tp1659
a(I1
I112
F1.0
tp1660
a(I2
I109
F0.95
tp1661
a(I2
I112
F0.050000000000000044
tp1662
asg21
I0
sg22
g36
sg23
I40
sg24
(lp1663
(I0
F0.0
tp1664
a(I1
F0.0
tp1665
a(I2
F0.0
tp1666
asg29
I3
sba(iState
State
p1667
(dp1668
g3
I138
sg4
g5
sg16
(lp1669
(I0
I114
I1
tp1670
a(I1
I112
F1.0
tp1671
a(I2
I109
F0.95
tp1672
a(I2
I112
F0.050000000000000044
tp1673
asg21
I0
sg22
g140
sg23
I40
sg24
(lp1674
(I0
I12
tp1675
a(I1
I12
tp1676
a(I2
I12
tp1677
asg29
I3
sba(iState
State
p1678
(dp1679
g3
I139
sg4
g5
sg16
(lp1680
(I0
I114
I1
tp1681
a(I1
I112
F1.0
tp1682
a(I2
I109
F0.95
tp1683
a(I2
I112
F0.050000000000000044
tp1684
asg21
I1
sg22
g140
sg23
I40
sg24
(lp1685
(I0
F0.0
tp1686
a(I1
F0.0
tp1687
a(I2
F0.0
tp1688
asg29
I3
sba(iState
State
p1689
(dp1690
g3
I140
sg4
g5
sg16
(lp1691
(I0
I112
F0.050000000000000044
tp1692
a(I0
I113
F0.95
tp1693
a(I1
I112
F1.0
tp1694
a(I2
I109
F0.95
tp1695
a(I2
I112
F0.050000000000000044
tp1696
asg21
I0
sg22
g109
sg23
I40
sg24
(lp1697
(I0
F0.0
tp1698
a(I1
F0.0
tp1699
a(I2
F0.0
tp1700
asg29
I3
sba(iState
State
p1701
(dp1702
g3
I141
sg4
g5
sg16
(lp1703
(I0
I114
I1
tp1704
a(I1
I112
F1.0
tp1705
a(I2
I109
F0.95
tp1706
a(I2
I112
F0.050000000000000044
tp1707
asg21
I0
sg22
g321
sg23
I40
sg24
(lp1708
(I0
I12
tp1709
a(I1
I12
tp1710
a(I2
I12
tp1711
asg29
I3
sba(iState
State
p1712
(dp1713
g3
I142
sg4
g5
sg16
(lp1714
(I0
I112
F0.050000000000000044
tp1715
a(I0
I113
F0.95
tp1716
a(I1
I112
F1.0
tp1717
a(I2
I109
F0.95
tp1718
a(I2
I112
F0.050000000000000044
tp1719
asg21
I0
sg22
g78
sg23
I40
sg24
(lp1720
(I0
F0.0
tp1721
a(I1
F0.0
tp1722
a(I2
F0.0
tp1723
asg29
I3
sba(iState
State
p1724
(dp1725
g3
I143
sg4
g5
sg16
(lp1726
(I0
I115
F0.050000000000000044
tp1727
a(I0
I118
F0.95
tp1728
a(I1
I115
F0.050000000000000044
tp1729
a(I1
I121
F0.95
tp1730
a(I2
I115
F1.0
tp1731
asg21
I0
sg22
g36
sg23
I48
sg24
(lp1732
(I0
F0.0
tp1733
a(I1
F0.0
tp1734
a(I2
F0.0
tp1735
asg29
I0
sba(iState
State
p1736
(dp1737
g3
I144
sg4
g5
sg16
(lp1738
(I0
I117
F0.050000000000000044
tp1739
a(I0
I120
F0.95
tp1740
a(I1
I117
F0.050000000000000044
tp1741
a(I1
I125
F0.95
tp1742
a(I2
I117
F1.0
tp1743
asg21
I0
sg22
g78
sg23
I48
sg24
(lp1744
(I0
F0.0
tp1745
a(I1
F0.0
tp1746
a(I2
F0.0
tp1747
asg29
I0
sba(iState
State
p1748
(dp1749
g3
I145
sg4
g5
sg16
(lp1750
(I0
I119
I1
tp1751
a(I1
I119
F0.050000000000000044
tp1752
a(I1
I127
F0.95
tp1753
a(I2
I119
F1.0
tp1754
asg21
I0
sg22
g47
sg23
I48
sg24
(lp1755
(I0
I9
tp1756
a(I1
I9
tp1757
a(I2
I9
tp1758
asg29
I0
sba(iState
State
p1759
(dp1760
g3
I146
sg4
g5
sg16
(lp1761
(I0
I119
I1
tp1762
a(I1
I119
F0.050000000000000044
tp1763
a(I1
I127
F0.95
tp1764
a(I2
I119
F1.0
tp1765
asg21
I1
sg22
g47
sg23
I48
sg24
(lp1766
(I0
F0.0
tp1767
a(I1
F0.0
tp1768
a(I2
F0.0
tp1769
asg29
I0
sba(iState
State
p1770
(dp1771
g3
I147
sg4
g5
sg16
(lp1772
(I0
I121
F0.050000000000000044
tp1773
a(I0
I124
F0.95
tp1774
a(I1
I121
F0.050000000000000044
tp1775
a(I1
I129
F0.95
tp1776
a(I2
I115
F0.95
tp1777
a(I2
I121
F0.050000000000000044
tp1778
asg21
I0
sg22
g36
sg23
I48
sg24
(lp1779
(I0
F0.0
tp1780
a(I1
F0.0
tp1781
a(I2
F0.0
tp1782
asg29
I1
sba(iState
State
p1783
(dp1784
g3
I148
sg4
g5
sg16
(lp1785
(I0
I123
F0.050000000000000044
tp1786
a(I0
I126
F0.95
tp1787
a(I1
I123
F0.050000000000000044
tp1788
a(I1
I132
F0.95
tp1789
a(I2
I116
F0.95
tp1790
a(I2
I123
F0.050000000000000044
tp1791
asg21
I0
sg22
g109
sg23
I48
sg24
(lp1792
(I0
F0.0
tp1793
a(I1
F0.0
tp1794
a(I2
F0.0
tp1795
asg29
I1
sba(iState
State
p1796
(dp1797
g3
I149
sg4
g5
sg16
(lp1798
(I0
I125
I1
tp1799
a(I1
I125
F0.050000000000000044
tp1800
a(I1
I134
F0.95
tp1801
a(I2
I117
F0.95
tp1802
a(I2
I125
F0.050000000000000044
tp1803
asg21
I0
sg22
g78
sg23
I48
sg24
(lp1804
(I0
I8
tp1805
a(I1
I8
tp1806
a(I2
I8
tp1807
asg29
I1
sba(iState
State
p1808
(dp1809
g3
I150
sg4
g5
sg16
(lp1810
(I0
I125
I1
tp1811
a(I1
I125
F0.050000000000000044
tp1812
a(I1
I134
F0.95
tp1813
a(I2
I117
F0.95
tp1814
a(I2
I125
F0.050000000000000044
tp1815
asg21
I1
sg22
g78
sg23
I48
sg24
(lp1816
(I0
F0.0
tp1817
a(I1
F0.0
tp1818
a(I2
F0.0
tp1819
asg29
I1
sba(iState
State
p1820
(dp1821
g3
I151
sg4
g5
sg16
(lp1822
(I0
I127
F0.050000000000000044
tp1823
a(I0
I128
F0.95
tp1824
a(I1
I127
F0.050000000000000044
tp1825
a(I1
I136
F0.95
tp1826
a(I2
I119
F0.95
tp1827
a(I2
I127
F0.050000000000000044
tp1828
asg21
I0
sg22
g47
sg23
I48
sg24
(lp1829
(I0
F0.0
tp1830
a(I1
F0.0
tp1831
a(I2
F0.0
tp1832
asg29
I1
sba(iState
State
p1833
(dp1834
g3
I152
sg4
g5
sg16
(lp1835
(I0
I129
F0.050000000000000044
tp1836
a(I0
I131
F0.95
tp1837
a(I1
I129
F0.050000000000000044
tp1838
a(I1
I137
F0.95
tp1839
a(I2
I121
F0.95
tp1840
a(I2
I129
F0.050000000000000044
tp1841
asg21
I0
sg22
g36
sg23
I48
sg24
(lp1842
(I0
F0.0
tp1843
a(I1
F0.0
tp1844
a(I2
F0.0
tp1845
asg29
I2
sba(iState
State
p1846
(dp1847
g3
I153
sg4
g5
sg16
(lp1848
(I0
I130
F0.050000000000000044
tp1849
a(I0
I133
F0.95
tp1850
a(I1
I130
F0.050000000000000044
tp1851
a(I1
I139
F0.95
tp1852
a(I2
I122
F0.95
tp1853
a(I2
I130
F0.050000000000000044
tp1854
asg21
I0
sg22
g140
sg23
I48
sg24
(lp1855
(I0
F0.0
tp1856
a(I1
F0.0
tp1857
a(I2
F0.0
tp1858
asg29
I2
sba(iState
State
p1859
(dp1860
g3
I154
sg4
g5
sg16
(lp1861
(I0
I132
I1
tp1862
a(I1
I132
F0.050000000000000044
tp1863
a(I1
I140
F0.95
tp1864
a(I2
I123
F0.95
tp1865
a(I2
I132
F0.050000000000000044
tp1866
asg21
I0
sg22
g109
sg23
I48
sg24
(lp1867
(I0
I19
tp1868
a(I1
I19
tp1869
a(I2
I19
tp1870
asg29
I2
sba(iState
State
p1871
(dp1872
g3
I155
sg4
g5
sg16
(lp1873
(I0
I132
I1
tp1874
a(I1
I132
F0.050000000000000044
tp1875
a(I1
I140
F0.95
tp1876
a(I2
I123
F0.95
tp1877
a(I2
I132
F0.050000000000000044
tp1878
asg21
I1
sg22
g109
sg23
I48
sg24
(lp1879
(I0
F0.0
tp1880
a(I1
F0.0
tp1881
a(I2
F0.0
tp1882
asg29
I2
sba(iState
State
p1883
(dp1884
g3
I156
sg4
g5
sg16
(lp1885
(I0
I134
F0.050000000000000044
tp1886
a(I0
I135
F0.95
tp1887
a(I1
I134
F0.050000000000000044
tp1888
a(I1
I142
F0.95
tp1889
a(I2
I125
F0.95
tp1890
a(I2
I134
F0.050000000000000044
tp1891
asg21
I0
sg22
g78
sg23
I48
sg24
(lp1892
(I0
F0.0
tp1893
a(I1
F0.0
tp1894
a(I2
F0.0
tp1895
asg29
I2
sba(iState
State
p1896
(dp1897
g3
I157
sg4
g5
sg16
(lp1898
(I0
I137
F0.050000000000000044
tp1899
a(I0
I138
F0.95
tp1900
a(I1
I137
F1.0
tp1901
a(I2
I129
F0.95
tp1902
a(I2
I137
F0.050000000000000044
tp1903
asg21
I0
sg22
g36
sg23
I48
sg24
(lp1904
(I0
F0.0
tp1905
a(I1
F0.0
tp1906
a(I2
F0.0
tp1907
asg29
I3
sba(iState
State
p1908
(dp1909
g3
I158
sg4
g5
sg16
(lp1910
(I0
I139
I1
tp1911
a(I1
I139
F1.0
tp1912
a(I2
I130
F0.95
tp1913
a(I2
I139
F0.050000000000000044
tp1914
asg21
I0
sg22
g140
sg23
I48
sg24
(lp1915
(I0
I12
tp1916
a(I1
I12
tp1917
a(I2
I12
tp1918
asg29
I3
sba(iState
State
p1919
(dp1920
g3
I159
sg4
g5
sg16
(lp1921
(I0
I139
I1
tp1922
a(I1
I139
F1.0
tp1923
a(I2
I130
F0.95
tp1924
a(I2
I139
F0.050000000000000044
tp1925
asg21
I1
sg22
g140
sg23
I48
sg24
(lp1926
(I0
F0.0
tp1927
a(I1
F0.0
tp1928
a(I2
F0.0
tp1929
asg29
I3
sba(iState
State
p1930
(dp1931
g3
I160
sg4
g5
sg16
(lp1932
(I0
I140
F0.050000000000000044
tp1933
a(I0
I141
F0.95
tp1934
a(I1
I140
F1.0
tp1935
a(I2
I132
F0.95
tp1936
a(I2
I140
F0.050000000000000044
tp1937
asg21
I0
sg22
g109
sg23
I48
sg24
(lp1938
(I0
F0.0
tp1939
a(I1
F0.0
tp1940
a(I2
F0.0
tp1941
asg29
I3
sba(iState
State
p1942
(dp1943
g3
I161
sg4
g5
sg16
(lp1944
(I0
I143
F0.050000000000000044
tp1945
a(I0
I145
F0.95
tp1946
a(I1
I143
F0.050000000000000044
tp1947
a(I1
I147
F0.95
tp1948
a(I2
I143
F1.0
tp1949
asg21
I0
sg22
g36
sg23
I56
sg24
(lp1950
(I0
F0.0
tp1951
a(I1
F0.0
tp1952
a(I2
F0.0
tp1953
asg29
I0
sba(iState
State
p1954
(dp1955
g3
I162
sg4
g5
sg16
(lp1956
(I0
I146
I1
tp1957
a(I1
I146
F0.050000000000000044
tp1958
a(I1
I151
F0.95
tp1959
a(I2
I146
F1.0
tp1960
asg21
I0
sg22
g47
sg23
I56
sg24
(lp1961
(I0
I9
tp1962
a(I1
I9
tp1963
a(I2
I9
tp1964
asg29
I0
sba(iState
State
p1965
(dp1966
g3
I163
sg4
g5
sg16
(lp1967
(I0
I147
F0.050000000000000044
tp1968
a(I0
I149
F0.95
tp1969
a(I1
I147
F0.050000000000000044
tp1970
a(I1
I152
F0.95
tp1971
a(I2
I143
F0.95
tp1972
a(I2
I147
F0.050000000000000044
tp1973
asg21
I0
sg22
g36
sg23
I56
sg24
(lp1974
(I0
F0.0
tp1975
a(I1
F0.0
tp1976
a(I2
F0.0
tp1977
asg29
I1
sba(iState
State
p1978
(dp1979
g3
I164
sg4
g5
sg16
(lp1980
(I0
I150
I1
tp1981
a(I1
I150
F0.050000000000000044
tp1982
a(I1
I156
F0.95
tp1983
a(I2
I144
F0.95
tp1984
a(I2
I150
F0.050000000000000044
tp1985
asg21
I0
sg22
g78
sg23
I56
sg24
(lp1986
(I0
I8
tp1987
a(I1
I8
tp1988
a(I2
I8
tp1989
asg29
I1
sba(iState
State
p1990
(dp1991
g3
I165
sg4
g5
sg16
(lp1992
(I0
I152
F0.050000000000000044
tp1993
a(I0
I154
F0.95
tp1994
a(I1
I152
F0.050000000000000044
tp1995
a(I1
I157
F0.95
tp1996
a(I2
I147
F0.95
tp1997
a(I2
I152
F0.050000000000000044
tp1998
asg21
I0
sg22
g36
sg23
I56
sg24
(lp1999
(I0
F0.0
tp2000
a(I1
F0.0
tp2001
a(I2
F0.0
tp2002
asg29
I2
sba(iState
State
p2003
(dp2004
g3
I166
sg4
g5
sg16
(lp2005
(I0
I155
I1
tp2006
a(I1
I155
F0.050000000000000044
tp2007
a(I1
I160
F0.95
tp2008
a(I2
I148
F0.95
tp2009
a(I2
I155
F0.050000000000000044
tp2010
asg21
I0
sg22
g109
sg23
I56
sg24
(lp2011
(I0
I19
tp2012
a(I1
I19
tp2013
a(I2
I19
tp2014
asg29
I2
sba(iState
State
p2015
(dp2016
g3
I167
sg4
g5
sg16
(lp2017
(I0
I157
F0.050000000000000044
tp2018
a(I0
I158
F0.95
tp2019
a(I1
I157
F1.0
tp2020
a(I2
I152
F0.95
tp2021
a(I2
I157
F0.050000000000000044
tp2022
asg21
I0
sg22
g36
sg23
I56
sg24
(lp2023
(I0
F0.0
tp2024
a(I1
F0.0
tp2025
a(I2
F0.0
tp2026
asg29
I3
sba(iState
State
p2027
(dp2028
g3
I168
sg4
g5
sg16
(lp2029
(I0
I159
I1
tp2030
a(I1
I159
F1.0
tp2031
a(I2
I153
F0.95
tp2032
a(I2
I159
F0.050000000000000044
tp2033
asg21
I0
sg22
g140
sg23
I56
sg24
(lp2034
(I0
I12
tp2035
a(I1
I12
tp2036
a(I2
I12
tp2037
asg29
I3
sba(iState
State
p2038
(dp2039
g3
I169
sg4
g5
sg16
(lp2040
(I0
I161
F0.050000000000000044
tp2041
a(I0
I162
F0.95
tp2042
a(I1
I161
F0.050000000000000044
tp2043
a(I1
I163
F0.95
tp2044
a(I2
I161
F1.0
tp2045
asg21
I0
sg22
g36
sg23
I64
sg24
(lp2046
(I0
F0.0
tp2047
a(I1
F0.0
tp2048
a(I2
F0.0
tp2049
asg29
I0
sba(iState
State
p2050
(dp2051
g3
I170
sg4
g5
sg16
(lp2052
(I0
I163
F0.050000000000000044
tp2053
a(I0
I164
F0.95
tp2054
a(I1
I163
F0.050000000000000044
tp2055
a(I1
I165
F0.95
tp2056
a(I2
I161
F0.95
tp2057
a(I2
I163
F0.050000000000000044
tp2058
asg21
I0
sg22
g36
sg23
I64
sg24
(lp2059
(I0
F0.0
tp2060
a(I1
F0.0
tp2061
a(I2
F0.0
tp2062
asg29
I1
sba(iState
State
p2063
(dp2064
g3
I171
sg4
g5
sg16
(lp2065
(I0
I165
F0.050000000000000044
tp2066
a(I0
I166
F0.95
tp2067
a(I1
I165
F0.050000000000000044
tp2068
a(I1
I167
F0.95
tp2069
a(I2
I163
F0.95
tp2070
a(I2
I165
F0.050000000000000044
tp2071
asg21
I0
sg22
g36
sg23
I64
sg24
(lp2072
(I0
F0.0
tp2073
a(I1
F0.0
tp2074
a(I2
F0.0
tp2075
asg29
I2
sba(iState
State
p2076
(dp2077
g3
I172
sg4
g5
sg16
(lp2078
(I0
I167
F0.050000000000000044
tp2079
a(I0
I168
F0.95
tp2080
a(I1
I167
F1.0
tp2081
a(I2
I165
F0.95
tp2082
a(I2
I167
F0.050000000000000044
tp2083
asg21
I0
sg22
g36
sg23
I64
sg24
(lp2084
(I0
F0.0
tp2085
a(I1
F0.0
tp2086
a(I2
F0.0
tp2087
asg29
I3
sba.(lp0
(iAction
Action
p1
(dp2
S'index'
p3
I0
sS'name'
p4
S'Inspect'
p5
sba(iAction
Action
p6
(dp7
g3
I1
sg4
S'Next'
p8
sba(iAction
Action
p9
(dp10
g3
I2
sg4
S'Previous'
p11
sba.(lp0
(I0
I0
I1
tp1
a(I1
I0
I1
tp2
a(I2
I0
I1
tp3
a.(lp0
(I0
F0.0
tp1
a(I1
F0.0
tp2
a(I2
F0.0
tp3
a.(lp0
(I0
I0
I1
tp1
a(I1
I0
I1
tp2
a(I2
I0
I1
tp3
a.(lp0
(I0
F0.0
tp1
a(I1
F0.0
tp2
a(I2
F0.0
tp3
a.(lp0
(I0
I0
I1
tp1
a(I1
I0
I1
tp2
a(I2
I0
I1
tp3
a.(lp0
(I0
I9
tp1
a(I1
I9
tp2
a(I2
I9
tp3
a.(lp0
(I0
I0
I1
tp1
a(I1
I0
I1
tp2
a(I2
I0
I1
tp3
a.(lp0
(I0
F0.0
tp1
a(I1
F0.0
tp2
a(I2
F0.0
tp3
a.(lp0
(I0
I0
I1
tp1
a(I1
I0
I1
tp2
a(I2
I0
I1
tp3
a.(lp0
(I0
F0.0
tp1
a(I1
F0.0
tp2
a(I2
F0.0
tp3
a.(lp0
(I0
I0
I1
tp1
a(I1
I0
I1
tp2
a(I2
I0
I1
tp3
a.(lp0
(I0
I8
tp1
a(I1
I8
tp2
a(I2
I8
tp3
a.(lp0
(I0
I0
I1
tp1
a(I1
I0
I1
tp2
a(I2
I0
I1
tp3
a.(lp0
(I0
F0.0
tp1
a(I1
F0.0
tp2
a(I2
F0.0
tp3
a.(lp0
(I0
I0
I1
tp1
a(I1
I0
I1
tp2
a(I2
I0
I1
tp3
a.(lp0
(I0
F0.0
tp1
a(I1
F0.0
tp2
a(I2
F0.0
tp3
a.(lp0
(I0
I0
I1
tp1
a(I1
I0
I1
tp2
a(I2
I0
I1
tp3
a.(lp0
(I0
I19
tp1
a(I1
I19
tp2
a(I2
I19
tp3
a.(lp0
(I0
I0
I1
tp1
a(I1
I0
I1
tp2
a(I2
I0
I1
tp3
a.(lp0
(I0
F0.0
tp1
a(I1
F0.0
tp2
a(I2
F0.0
tp3
a.(lp0
(I0
I0
I1
tp1
a(I1
I0
I1
tp2
a(I2
I0
I1
tp3
a.(lp0
(I0
F0.0
tp1
a(I1
F0.0
tp2
a(I2
F0.0
tp3
a.(lp0
(I0
I0
I1
tp1
a(I1
I0
I1
tp2
a(I2
I0
I1
tp3
a.(lp0
(I0
I12
tp1
a(I1
I12
tp2
a(I2
I12
tp3
a.(lp0
(I0
I0
I1
tp1
a(I1
I0
I1
tp2
a(I2
I0
I1
tp3
a.(lp0
(I0
F0.0
tp1
a(I1
F0.0
tp2
a(I2
F0.0
tp3
a.(lp0
(I0
I1
F0.050000000000000044
tp1
a(I0
I2
F0.95
tp2
a(I1
I1
F0.050000000000000044
tp3
a(I1
I4
F0.95
tp4
a(I2
I1
F1.0
tp5
a.(lp0
(I0
F0.0
tp1
a(I1
F0.0
tp2
a(I2
F0.0
tp3
a.(lp0
(I0
I1
F0.050000000000000044
tp1
a(I0
I2
F0.95
tp2
a(I1
I1
F0.050000000000000044
tp3
a(I1
I4
F0.95
tp4
a(I2
I1
F1.0
tp5
a.(lp0
(I0
F0.0
tp1
a(I1
F0.0
tp2
a(I2
F0.0
tp3
a.(lp0
(I0
I1
F0.050000000000000044
tp1
a(I0
I2
F0.95
tp2
a(I1
I1
F0.050000000000000044
tp3
a(I1
I4
F0.95
tp4
a(I2
I1
F1.0
tp5
a.(lp0
(I0
F0.0
tp1
a(I1
F0.0
tp2
a(I2
F0.0
tp3
a.(lp0
(I0
I1
F0.050000000000000044
tp1
a(I0
I2
F0.95
tp2
a(I1
I1
F0.050000000000000044
tp3
a(I1
I4
F0.95
tp4
a(I2
I1
F1.0
tp5
a.(lp0
(I0
F0.0
tp1
a(I1
F0.0
tp2
a(I2
F0.0
tp3
a.(lp0
(I0
I1
F0.050000000000000044
tp1
a(I0
I2
F0.95
tp2
a(I1
I1
F0.050000000000000044
tp3
a(I1
I4
F0.95
tp4
a(I2
I1
F1.0
tp5
a.(lp0
(I0
F0.0
tp1
a(I1
F0.0
tp2
a(I2
F0.0
tp3
a.(lp0
(I0
I3
I1
tp1
a(I1
I1
F0.050000000000000044
tp2
a(I1
I4
F0.95
tp3
a(I2
I1
F1.0
tp4
a.(lp0
(I0
I9
tp1
a(I1
I9
tp2
a(I2
I9
tp3
a.(lp0
(I0
I3
I1
tp1
a(I1
I1
F0.050000000000000044
tp2
a(I1
I4
F0.95
tp3
a(I2
I1
F1.0
tp4
a.(lp0
(I0
F0.0
tp1
a(I1
F0.0
tp2
a(I2
F0.0
tp3
a.(lp0
(I0
I3
I1
tp1
a(I1
I1
F0.050000000000000044
tp2
a(I1
I4
F0.95
tp3
a(I2
I1
F1.0
tp4
a.(lp0
(I0
I9
tp1
a(I1
I9
tp2
a(I2
I9
tp3
a.(lp0
(I0
I3
I1
tp1
a(I1
I1
F0.050000000000000044
tp2
a(I1
I4
F0.95
tp3
a(I2
I1
F1.0
tp4
a.(lp0
(I0
I9
tp1
a(I1
I9
tp2
a(I2
I9
tp3
a.(lp0
(I0
I3
I1
tp1
a(I1
I1
F0.050000000000000044
tp2
a(I1
I4
F0.95
tp3
a(I2
I1
F1.0
tp4
a.(lp0
(I0
F0.0
tp1
a(I1
F0.0
tp2
a(I2
F0.0
tp3
a.(lp0
(I0
I4
F0.050000000000000044
tp1
a(I0
I5
F0.95
tp2
a(I1
I4
F0.050000000000000044
tp3
a(I1
I7
F0.95
tp4
a(I2
I1
F0.95
tp5
a(I2
I4
F0.050000000000000044
tp6
a.(lp0
(I0
F0.0
tp1
a(I1
F0.0
tp2
a(I2
F0.0
tp3
a.(lp0
(I0
I4
F0.050000000000000044
tp1
a(I0
I5
F0.95
tp2
a(I1
I4
F0.050000000000000044
tp3
a(I1
I7
F0.95
tp4
a(I2
I1
F0.95
tp5
a(I2
I4
F0.050000000000000044
tp6
a.(lp0
(I0
F0.0
tp1
a(I1
F0.0
tp2
a(I2
F0.0
tp3
a.(lp0
(I0
I4
F0.050000000000000044
tp1
a(I0
I5
F0.95
tp2
a(I1
I4
F0.050000000000000044
tp3
a(I1
I7
F0.95
tp4
a(I2
I1
F0.95
tp5
a(I2
I4
F0.050000000000000044
tp6
a.(lp0
(I0
F0.0
tp1
a(I1
F0.0
tp2
a(I2
F0.0
tp3
a.(lp0
(I0
I4
F0.050000000000000044
tp1
a(I0
I5
F0.95
tp2
a(I1
I4
F0.050000000000000044
tp3
a(I1
I7
F0.95
tp4
a(I2
I1
F0.95
tp5
a(I2
I4
F0.050000000000000044
tp6
a.(lp0
(I0
F0.0
tp1
a(I1
F0.0
tp2
a(I2
F0.0
tp3
a.(lp0
(I0
I6
I1
tp1
a(I1
I4
F0.050000000000000044
tp2
a(I1
I7
F0.95
tp3
a(I2
I1
F0.95
tp4
a(I2
I4
F0.050000000000000044
tp5
a.(lp0
(I0
I8
tp1
a(I1
I8
tp2
a(I2
I8
tp3
a.(lp0
(I0
I6
I1
tp1
a(I1
I4
F0.050000000000000044
tp2
a(I1
I7
F0.95
tp3
a(I2
I1
F0.95
tp4
a(I2
I4
F0.050000000000000044
tp5
a.(lp0
(I0
F0.0
tp1
a(I1
F0.0
tp2
a(I2
F0.0
tp3
a.(lp0
(I0
I6
I1
tp1
a(I1
I4
F0.050000000000000044
tp2
a(I1
I7
F0.95
tp3
a(I2
I1
F0.95
tp4
a(I2
I4
F0.050000000000000044
tp5
a.(lp0
(I0
I8
tp1
a(I1
I8
tp2
a(I2
I8
tp3
a.(lp0
(I0
I6
I1
tp1
a(I1
I4
F0.050000000000000044
tp2
a(I1
I7
F0.95
tp3
a(I2
I1
F0.95
tp4
a(I2
I4
F0.050000000000000044
tp5
a.(lp0
(I0
I8
tp1
a(I1
I8
tp2
a(I2
I8
tp3
a.(lp0
(I0
I6
I1
tp1
a(I1
I4
F0.050000000000000044
tp2
a(I1
I7
F0.95
tp3
a(I2
I1
F0.95
tp4
a(I2
I4
F0.050000000000000044
tp5
a.(lp0
(I0
F0.0
tp1
a(I1
F0.0
tp2
a(I2
F0.0
tp3
a.(lp0
(I0
I4
F0.050000000000000044
tp1
a(I0
I5
F0.95
tp2
a(I1
I4
F0.050000000000000044
tp3
a(I1
I7
F0.95
tp4
a(I2
I1
F0.95
tp5
a(I2
I4
F0.050000000000000044
tp6
a.(lp0
(I0
F0.0
tp1
a(I1
F0.0
tp2
a(I2
F0.0
tp3
a.(lp0
(I0
I6
I1
tp1
a(I1
I4
F0.050000000000000044
tp2
a(I1
I7
F0.95
tp3
a(I2
I1
F0.95
tp4
a(I2
I4
F0.050000000000000044
tp5
a.(lp0
(I0
I8
tp1
a(I1
I8
tp2
a(I2
I8
tp3
a.(lp0
(I0
I6
I1
tp1
a(I1
I4
F0.050000000000000044
tp2
a(I1
I7
F0.95
tp3
a(I2
I1
F0.95
tp4
a(I2
I4
F0.050000000000000044
tp5
a.(lp0
(I0
F0.0
tp1
a(I1
F0.0
tp2
a(I2
F0.0
tp3
a.(lp0
(I0
I7
F0.050000000000000044
tp1
a(I0
I8
F0.95
tp2
a(I1
I7
F0.050000000000000044
tp3
a(I1
I10
F0.95
tp4
a(I2
I4
F0.95
tp5
a(I2
I7
F0.050000000000000044
tp6
a.(lp0
(I0
F0.0
tp1
a(I1
F0.0
tp2
a(I2
F0.0
tp3
a.(lp0
(I0
I7
F0.050000000000000044
tp1
a(I0
I8
F0.95
tp2
a(I1
I7
F0.050000000000000044
tp3
a(I1
I10
F0.95
tp4
a(I2
I4
F0.95
tp5
a(I2
I7
F0.050000000000000044
tp6
a.(lp0
(I0
F0.0
tp1
a(I1
F0.0
tp2
a(I2
F0.0
tp3
a.(lp0
(I0
I9
I1
tp1
a(I1
I7
F0.050000000000000044
tp2
a(I1
I10
F0.95
tp3
a(I2
I4
F0.95
tp4
a(I2
I7
F0.050000000000000044
tp5
a.(lp0
(I0
I19
tp1
a(I1
I19
tp2
a(I2
I19
tp3
a.(lp0
(I0
I9
I1
tp1
a(I1
I7
F0.050000000000000044
tp2
a(I1
I10
F0.95
tp3
a(I2
I4
F0.95
tp4
a(I2
I7
F0.050000000000000044
tp5
a.(lp0
(I0
F0.0
tp1
a(I1
F0.0
tp2
a(I2
F0.0
tp3
a.(lp0
(I0
I9
I1
tp1
a(I1
I7
F0.050000000000000044
tp2
a(I1
I10
F0.95
tp3
a(I2
I4
F0.95
tp4
a(I2
I7
F0.050000000000000044
tp5
a.(lp0
(I0
I19
tp1
a(I1
I19
tp2
a(I2
I19
tp3
a.(lp0
(I0
I9
I1
tp1
a(I1
I7
F0.050000000000000044
tp2
a(I1
I10
F0.95
tp3
a(I2
I4
F0.95
tp4
a(I2
I7
F0.050000000000000044
tp5
a.(lp0
(I0
F0.0
tp1
a(I1
F0.0
tp2
a(I2
F0.0
tp3
a.(lp0
(I0
I7
F0.050000000000000044
tp1
a(I0
I8
F0.95
tp2
a(I1
I7
F0.050000000000000044
tp3
a(I1
I10
F0.95
tp4
a(I2
I4
F0.95
tp5
a(I2
I7
F0.050000000000000044
tp6
a.(lp0
(I0
F0.0
tp1
a(I1
F0.0
tp2
a(I2
F0.0
tp3
a.(lp0
(I0
I9
I1
tp1
a(I1
I7
F0.050000000000000044
tp2
a(I1
I10
F0.95
tp3
a(I2
I4
F0.95
tp4
a(I2
I7
F0.050000000000000044
tp5
a.(lp0
(I0
I19
tp1
a(I1
I19
tp2
a(I2
I19
tp3
a.(lp0
(I0
I9
I1
tp1
a(I1
I7
F0.050000000000000044
tp2
a(I1
I10
F0.95
tp3
a(I2
I4
F0.95
tp4
a(I2
I7
F0.050000000000000044
tp5
a.(lp0
(I0
F0.0
tp1
a(I1
F0.0
tp2
a(I2
F0.0
tp3
a.(lp0
(I0
I7
F0.050000000000000044
tp1
a(I0
I8
F0.95
tp2
a(I1
I7
F0.050000000000000044
tp3
a(I1
I10
F0.95
tp4
a(I2
I4
F0.95
tp5
a(I2
I7
F0.050000000000000044
tp6
a.(lp0
(I0
F0.0
tp1
a(I1
F0.0
tp2
a(I2
F0.0
tp3
a.(lp0
(I0
I9
I1
tp1
a(I1
I7
F0.050000000000000044
tp2
a(I1
I10
F0.95
tp3
a(I2
I4
F0.95
tp4
a(I2
I7
F0.050000000000000044
tp5
a.(lp0
(I0
I19
tp1
a(I1
I19
tp2
a(I2
I19
tp3
a.(lp0
(I0
I7
F0.050000000000000044
tp1
a(I0
I8
F0.95
tp2
a(I1
I7
F0.050000000000000044
tp3
a(I1
I10
F0.95
tp4
a(I2
I4
F0.95
tp5
a(I2
I7
F0.050000000000000044
tp6
a.(lp0
(I0
F0.0
tp1
a(I1
F0.0
tp2
a(I2
F0.0
tp3
a.(lp0
(I0
I10
F0.050000000000000044
tp1
a(I0
I11
F0.95
tp2
a(I1
I10
F1.0
tp3
a(I2
I7
F0.95
tp4
a(I2
I10
F0.050000000000000044
tp5
a.(lp0
(I0
F0.0
tp1
a(I1
F0.0
tp2
a(I2
F0.0
tp3
a.(lp0
(I0
I12
I1
tp1
a(I1
I10
F1.0
tp2
a(I2
I7
F0.95
tp3
a(I2
I10
F0.050000000000000044
tp4
a.(lp0
(I0
I12
tp1
a(I1
I12
tp2
a(I2
I12
tp3
a.(lp0
(I0
I12
I1
tp1
a(I1
I10
F1.0
tp2
a(I2
I7
F0.95
tp3
a(I2
I10
F0.050000000000000044
tp4
a.(lp0
(I0
F0.0
tp1
a(I1
F0.0
tp2
a(I2
F0.0
tp3
a.(lp0
(I0
I10
F0.050000000000000044
tp1
a(I0
I11
F0.95
tp2
a(I1
I10
F1.0
tp3
a(I2
I7
F0.95
tp4
a(I2
I10
F0.050000000000000044
tp5
a.(lp0
(I0
F0.0
tp1
a(I1
F0.0
tp2
a(I2
F0.0
tp3
a.(lp0
(I0
I12
I1
tp1
a(I1
I10
F1.0
tp2
a(I2
I7
F0.95
tp3
a(I2
I10
F0.050000000000000044
tp4
a.(lp0
(I0
I12
tp1
a(I1
I12
tp2
a(I2
I12
tp3
a.(lp0
(I0
I12
I1
tp1
a(I1
I10
F1.0
tp2
a(I2
I7
F0.95
tp3
a(I2
I10
F0.050000000000000044
tp4
a.(lp0
(I0
F0.0
tp1
a(I1
F0.0
tp2
a(I2
F0.0
tp3
a.(lp0
(I0
I10
F0.050000000000000044
tp1
a(I0
I11
F0.95
tp2
a(I1
I10
F1.0
tp3
a(I2
I7
F0.95
tp4
a(I2
I10
F0.050000000000000044
tp5
a.(lp0
(I0
F0.0
tp1
a(I1
F0.0
tp2
a(I2
F0.0
tp3
a.(lp0
(I0
I12
I1
tp1
a(I1
I10
F1.0
tp2
a(I2
I7
F0.95
tp3
a(I2
I10
F0.050000000000000044
tp4
a.(lp0
(I0
I12
tp1
a(I1
I12
tp2
a(I2
I12
tp3
a.(lp0
(I0
I10
F0.050000000000000044
tp1
a(I0
I11
F0.95
tp2
a(I1
I10
F1.0
tp3
a(I2
I7
F0.95
tp4
a(I2
I10
F0.050000000000000044
tp5
a.(lp0
(I0
F0.0
tp1
a(I1
F0.0
tp2
a(I2
F0.0
tp3
a.(lp0
(I0
I10
F0.050000000000000044
tp1
a(I0
I11
F0.95
tp2
a(I1
I10
F1.0
tp3
a(I2
I7
F0.95
tp4
a(I2
I10
F0.050000000000000044
tp5
a.(lp0
(I0
F0.0
tp1
a(I1
F0.0
tp2
a(I2
F0.0
tp3
a.(lp0
(I0
I13
F0.050000000000000044
tp1
a(I0
I18
F0.95
tp2
a(I1
I13
F0.050000000000000044
tp3
a(I1
I23
F0.95
tp4
a(I2
I13
F1.0
tp5
a.(lp0
(I0
F0.0
tp1
a(I1
F0.0
tp2
a(I2
F0.0
tp3
a.(lp0
(I0
I15
F0.050000000000000044
tp1
a(I0
I20
F0.95
tp2
a(I1
I15
F0.050000000000000044
tp3
a(I1
I25
F0.95
tp4
a(I2
I15
F1.0
tp5
a.(lp0
(I0
F0.0
tp1
a(I1
F0.0
tp2
a(I2
F0.0
tp3
a.(lp0
(I0
I16
F0.050000000000000044
tp1
a(I0
I21
F0.95
tp2
a(I1
I16
F0.050000000000000044
tp3
a(I1
I28
F0.95
tp4
a(I2
I16
F1.0
tp5
a.(lp0
(I0
F0.0
tp1
a(I1
F0.0
tp2
a(I2
F0.0
tp3
a.(lp0
(I0
I19
I1
tp1
a(I1
I19
F0.050000000000000044
tp2
a(I1
I32
F0.95
tp3
a(I2
I19
F1.0
tp4
a.(lp0
(I0
I9
tp1
a(I1
I9
tp2
a(I2
I9
tp3
a.(lp0
(I0
I19
I1
tp1
a(I1
I19
F0.050000000000000044
tp2
a(I1
I32
F0.95
tp3
a(I2
I19
F1.0
tp4
a.(lp0
(I0
F0.0
tp1
a(I1
F0.0
tp2
a(I2
F0.0
tp3
a.(lp0
(I0
I22
I1
tp1
a(I1
I22
F0.050000000000000044
tp2
a(I1
I34
F0.95
tp3
a(I2
I22
F1.0
tp4
a.(lp0
(I0
I9
tp1
a(I1
I9
tp2
a(I2
I9
tp3
a.(lp0
(I0
I23
F0.050000000000000044
tp1
a(I0
I27
F0.95
tp2
a(I1
I23
F0.050000000000000044
tp3
a(I1
I35
F0.95
tp4
a(I2
I13
F0.95
tp5
a(I2
I23
F0.050000000000000044
tp6
a.(lp0
(I0
F0.0
tp1
a(I1
F0.0
tp2
a(I2
F0.0
tp3
a.(lp0
(I0
I24
F0.050000000000000044
tp1
a(I0
I29
F0.95
tp2
a(I1
I24
F0.050000000000000044
tp3
a(I1
I36
F0.95
tp4
a(I2
I14
F0.95
tp5
a(I2
I24
F0.050000000000000044
tp6
a.(lp0
(I0
F0.0
tp1
a(I1
F0.0
tp2
a(I2
F0.0
tp3
a.(lp0
(I0
I25
F0.050000000000000044
tp1
a(I0
I30
F0.95
tp2
a(I1
I25
F0.050000000000000044
tp3
a(I1
I38
F0.95
tp4
a(I2
I15
F0.95
tp5
a(I2
I25
F0.050000000000000044
tp6
a.(lp0
(I0
F0.0
tp1
a(I1
F0.0
tp2
a(I2
F0.0
tp3
a.(lp0
(I0
I28
I1
tp1
a(I1
I28
F0.050000000000000044
tp2
a(I1
I41
F0.95
tp3
a(I2
I16
F0.95
tp4
a(I2
I28
F0.050000000000000044
tp5
a.(lp0
(I0
I8
tp1
a(I1
I8
tp2
a(I2
I8
tp3
a.(lp0
(I0
I28
I1
tp1
a(I1
I28
F0.050000000000000044
tp2
a(I1
I41
F0.95
tp3
a(I2
I16
F0.95
tp4
a(I2
I28
F0.050000000000000044
tp5
a.(lp0
(I0
F0.0
tp1
a(I1
F0.0
tp2
a(I2
F0.0
tp3
a.(lp0
(I0
I31
I1
tp1
a(I1
I31
F0.050000000000000044
tp2
a(I1
I43
F0.95
tp3
a(I2
I17
F0.95
tp4
a(I2
I31
F0.050000000000000044
tp5
a.(lp0
(I0
I8
tp1
a(I1
I8
tp2
a(I2
I8
tp3
a.(lp0
(I0
I32
F0.050000000000000044
tp1
a(I0
I33
F0.95
tp2
a(I1
I32
F0.050000000000000044
tp3
a(I1
I44
F0.95
tp4
a(I2
I19
F0.95
tp5
a(I2
I32
F0.050000000000000044
tp6
a.(lp0
(I0
F0.0
tp1
a(I1
F0.0
tp2
a(I2
F0.0
tp3
a.(lp0
(I0
I34
I1
tp1
a(I1
I34
F0.050000000000000044
tp2
a(I1
I46
F0.95
tp3
a(I2
I22
F0.95
tp4
a(I2
I34
F0.050000000000000044
tp5
a.(lp0
(I0
I8
tp1
a(I1
I8
tp2
a(I2
I8
tp3
a.(lp0
(I0
I35
F0.050000000000000044
tp1
a(I0
I37
F0.95
tp2
a(I1
I35
F0.050000000000000044
tp3
a(I1
I47
F0.95
tp4
a(I2
I23
F0.95
tp5
a(I2
I35
F0.050000000000000044
tp6
a.(lp0
(I0
F0.0
tp1
a(I1
F0.0
tp2
a(I2
F0.0
tp3
a.(lp0
(I0
I36
F0.050000000000000044
tp1
a(I0
I39
F0.95
tp2
a(I1
I36
F0.050000000000000044
tp3
a(I1
I49
F0.95
tp4
a(I2
I24
F0.95
tp5
a(I2
I36
F0.050000000000000044
tp6
a.(lp0
(I0
F0.0
tp1
a(I1
F0.0
tp2
a(I2
F0.0
tp3
a.(lp0
(I0
I38
I1
tp1
a(I1
I38
F0.050000000000000044
tp2
a(I1
I50
F0.95
tp3
a(I2
I25
F0.95
tp4
a(I2
I38
F0.050000000000000044
tp5
a.(lp0
(I0
I19
tp1
a(I1
I19
tp2
a(I2
I19
tp3
a.(lp0
(I0
I38
I1
tp1
a(I1
I38
F0.050000000000000044
tp2
a(I1
I50
F0.95
tp3
a(I2
I25
F0.95
tp4
a(I2
I38
F0.050000000000000044
tp5
a.(lp0
(I0
F0.0
tp1
a(I1
F0.0
tp2
a(I2
F0.0
tp3
a.(lp0
(I0
I40
I1
tp1
a(I1
I40
F0.050000000000000044
tp2
a(I1
I52
F0.95
tp3
a(I2
I26
F0.95
tp4
a(I2
I40
F0.050000000000000044
tp5
a.(lp0
(I0
I19
tp1
a(I1
I19
tp2
a(I2
I19
tp3
a.(lp0
(I0
I41
F0.050000000000000044
tp1
a(I0
I42
F0.95
tp2
a(I1
I41
F0.050000000000000044
tp3
a(I1
I53
F0.95
tp4
a(I2
I28
F0.95
tp5
a(I2
I41
F0.050000000000000044
tp6
a.(lp0
(I0
F0.0
tp1
a(I1
F0.0
tp2
a(I2
F0.0
tp3
a.(lp0
(I0
I43
I1
tp1
a(I1
I43
F0.050000000000000044
tp2
a(I1
I55
F0.95
tp3
a(I2
I31
F0.95
tp4
a(I2
I43
F0.050000000000000044
tp5
a.(lp0
(I0
I19
tp1
a(I1
I19
tp2
a(I2
I19
tp3
a.(lp0
(I0
I44
F0.050000000000000044
tp1
a(I0
I45
F0.95
tp2
a(I1
I44
F0.050000000000000044
tp3
a(I1
I56
F0.95
tp4
a(I2
I32
F0.95
tp5
a(I2
I44
F0.050000000000000044
tp6
a.(lp0
(I0
F0.0
tp1
a(I1
F0.0
tp2
a(I2
F0.0
tp3
a.(lp0
(I0
I47
F0.050000000000000044
tp1
a(I0
I48
F0.95
tp2
a(I1
I47
F1.0
tp3
a(I2
I35
F0.95
tp4
a(I2
I47
F0.050000000000000044
tp5
a.(lp0
(I0
F0.0
tp1
a(I1
F0.0
tp2
a(I2
F0.0
tp3
a.(lp0
(I0
I49
I1
tp1
a(I1
I49
F1.0
tp2
a(I2
I36
F0.95
tp3
a(I2
I49
F0.050000000000000044
tp4
a.(lp0
(I0
I12
tp1
a(I1
I12
tp2
a(I2
I12
tp3
a.(lp0
(I0
I49
I1
tp1
a(I1
I49
F1.0
tp2
a(I2
I36
F0.95
tp3
a(I2
I49
F0.050000000000000044
tp4
a.(lp0
(I0
F0.0
tp1
a(I1
F0.0
tp2
a(I2
F0.0
tp3
a.(lp0
(I0
I50
F0.050000000000000044
tp1
a(I0
I51
F0.95
tp2
a(I1
I50
F1.0
tp3
a(I2
I38
F0.95
tp4
a(I2
I50
F0.050000000000000044
tp5
a.(lp0
(I0
F0.0
tp1
a(I1
F0.0
tp2
a(I2
F0.0
tp3
a.(lp0
(I0
I52
I1
tp1
a(I1
I52
F1.0
tp2
a(I2
I40
F0.95
tp3
a(I2
I52
F0.050000000000000044
tp4
a.(lp0
(I0
I12
tp1
a(I1
I12
tp2
a(I2
I12
tp3
a.(lp0
(I0
I53
F0.050000000000000044
tp1
a(I0
I54
F0.95
tp2
a(I1
I53
F1.0
tp3
a(I2
I41
F0.95
tp4
a(I2
I53
F0.050000000000000044
tp5
a.(lp0
(I0
F0.0
tp1
a(I1
F0.0
tp2
a(I2
F0.0
tp3
a.(lp0
(I0
I57
F0.050000000000000044
tp1
a(I0
I60
F0.95
tp2
a(I1
I57
F0.050000000000000044
tp3
a(I1
I63
F0.95
tp4
a(I2
I57
F1.0
tp5
a.(lp0
(I0
F0.0
tp1
a(I1
F0.0
tp2
a(I2
F0.0
tp3
a.(lp0
(I0
I59
F0.050000000000000044
tp1
a(I0
I62
F0.95
tp2
a(I1
I59
F0.050000000000000044
tp3
a(I1
I67
F0.95
tp4
a(I2
I59
F1.0
tp5
a.(lp0
(I0
F0.0
tp1
a(I1
F0.0
tp2
a(I2
F0.0
tp3
a.(lp0
(I0
I61
I1
tp1
a(I1
I61
F0.050000000000000044
tp2
a(I1
I69
F0.95
tp3
a(I2
I61
F1.0
tp4
a.(lp0
(I0
I9
tp1
a(I1
I9
tp2
a(I2
I9
tp3
a.(lp0
(I0
I61
I1
tp1
a(I1
I61
F0.050000000000000044
tp2
a(I1
I69
F0.95
tp3
a(I2
I61
F1.0
tp4
a.(lp0
(I0
F0.0
tp1
a(I1
F0.0
tp2
a(I2
F0.0
tp3
a.(lp0
(I0
I63
F0.050000000000000044
tp1
a(I0
I66
F0.95
tp2
a(I1
I63
F0.050000000000000044
tp3
a(I1
I71
F0.95
tp4
a(I2
I57
F0.95
tp5
a(I2
I63
F0.050000000000000044
tp6
a.(lp0
(I0
F0.0
tp1
a(I1
F0.0
tp2
a(I2
F0.0
tp3
a.(lp0
(I0
I65
F0.050000000000000044
tp1
a(I0
I68
F0.95
tp2
a(I1
I65
F0.050000000000000044
tp3
a(I1
I74
F0.95
tp4
a(I2
I58
F0.95
tp5
a(I2
I65
F0.050000000000000044
tp6
a.(lp0
(I0
F0.0
tp1
a(I1
F0.0
tp2
a(I2
F0.0
tp3
a.(lp0
(I0
I67
I1
tp1
a(I1
I67
F0.050000000000000044
tp2
a(I1
I76
F0.95
tp3
a(I2
I59
F0.95
tp4
a(I2
I67
F0.050000000000000044
tp5
a.(lp0
(I0
I8
tp1
a(I1
I8
tp2
a(I2
I8
tp3
a.(lp0
(I0
I67
I1
tp1
a(I1
I67
F0.050000000000000044
tp2
a(I1
I76
F0.95
tp3
a(I2
I59
F0.95
tp4
a(I2
I67
F0.050000000000000044
tp5
a.(lp0
(I0
F0.0
tp1
a(I1
F0.0
tp2
a(I2
F0.0
tp3
a.(lp0
(I0
I69
F0.050000000000000044
tp1
a(I0
I70
F0.95
tp2
a(I1
I69
F0.050000000000000044
tp3
a(I1
I78
F0.95
tp4
a(I2
I61
F0.95
tp5
a(I2
I69
F0.050000000000000044
tp6
a.(lp0
(I0
F0.0
tp1
a(I1
F0.0
tp2
a(I2
F0.0
tp3
a.(lp0
(I0
I71
F0.050000000000000044
tp1
a(I0
I73
F0.95
tp2
a(I1
I71
F0.050000000000000044
tp3
a(I1
I79
F0.95
tp4
a(I2
I63
F0.95
tp5
a(I2
I71
F0.050000000000000044
tp6
a.(lp0
(I0
F0.0
tp1
a(I1
F0.0
tp2
a(I2
F0.0
tp3
a.(lp0
(I0
I72
F0.050000000000000044
tp1
a(I0
I75
F0.95
tp2
a(I1
I72
F0.050000000000000044
tp3
a(I1
I81
F0.95
tp4
a(I2
I64
F0.95
tp5
a(I2
I72
F0.050000000000000044
tp6
a.(lp0
(I0
F0.0
tp1
a(I1
F0.0
tp2
a(I2
F0.0
tp3
a.(lp0
(I0
I74
I1
tp1
a(I1
I74
F0.050000000000000044
tp2
a(I1
I82
F0.95
tp3
a(I2
I65
F0.95
tp4
a(I2
I74
F0.050000000000000044
tp5
a.(lp0
(I0
I19
tp1
a(I1
I19
tp2
a(I2
I19
tp3
a.(lp0
(I0
I74
I1
tp1
a(I1
I74
F0.050000000000000044
tp2
a(I1
I82
F0.95
tp3
a(I2
I65
F0.95
tp4
a(I2
I74
F0.050000000000000044
tp5
a.(lp0
(I0
F0.0
tp1
a(I1
F0.0
tp2
a(I2
F0.0
tp3
a.(lp0
(I0
I76
F0.050000000000000044
tp1
a(I0
I77
F0.95
tp2
a(I1
I76
F0.050000000000000044
tp3
a(I1
I84
F0.95
tp4
a(I2
I67
F0.95
tp5
a(I2
I76
F0.050000000000000044
tp6
a.(lp0
(I0
F0.0
tp1
a(I1
F0.0
tp2
a(I2
F0.0
tp3
a.(lp0
(I0
I79
F0.050000000000000044
tp1
a(I0
I80
F0.95
tp2
a(I1
I79
F1.0
tp3
a(I2
I71
F0.95
tp4
a(I2
I79
F0.050000000000000044
tp5
a.(lp0
(I0
F0.0
tp1
a(I1
F0.0
tp2
a(I2
F0.0
tp3
a.(lp0
(I0
I81
I1
tp1
a(I1
I81
F1.0
tp2
a(I2
I72
F0.95
tp3
a(I2
I81
F0.050000000000000044
tp4
a.(lp0
(I0
I12
tp1
a(I1
I12
tp2
a(I2
I12
tp3
a.(lp0
(I0
I81
I1
tp1
a(I1
I81
F1.0
tp2
a(I2
I72
F0.95
tp3
a(I2
I81
F0.050000000000000044
tp4
a.(lp0
(I0
F0.0
tp1
a(I1
F0.0
tp2
a(I2
F0.0
tp3
a.(lp0
(I0
I82
F0.050000000000000044
tp1
a(I0
I83
F0.95
tp2
a(I1
I82
F1.0
tp3
a(I2
I74
F0.95
tp4
a(I2
I82
F0.050000000000000044
tp5
a.(lp0
(I0
F0.0
tp1
a(I1
F0.0
tp2
a(I2
F0.0
tp3
a.(lp0
(I0
I85
F0.050000000000000044
tp1
a(I0
I87
F0.95
tp2
a(I1
I85
F0.050000000000000044
tp3
a(I1
I89
F0.95
tp4
a(I2
I85
F1.0
tp5
a.(lp0
(I0
F0.0
tp1
a(I1
F0.0
tp2
a(I2
F0.0
tp3
a.(lp0
(I0
I88
I1
tp1
a(I1
I88
F0.050000000000000044
tp2
a(I1
I93
F0.95
tp3
a(I2
I88
F1.0
tp4
a.(lp0
(I0
I9
tp1
a(I1
I9
tp2
a(I2
I9
tp3
a.(lp0
(I0
I88
I1
tp1
a(I1
I88
F0.050000000000000044
tp2
a(I1
I93
F0.95
tp3
a(I2
I88
F1.0
tp4
a.(lp0
(I0
F0.0
tp1
a(I1
F0.0
tp2
a(I2
F0.0
tp3
a.(lp0
(I0
I89
F0.050000000000000044
tp1
a(I0
I91
F0.95
tp2
a(I1
I89
F0.050000000000000044
tp3
a(I1
I94
F0.95
tp4
a(I2
I85
F0.95
tp5
a(I2
I89
F0.050000000000000044
tp6
a.(lp0
(I0
F0.0
tp1
a(I1
F0.0
tp2
a(I2
F0.0
tp3
a.(lp0
(I0
I92
I1
tp1
a(I1
I92
F0.050000000000000044
tp2
a(I1
I98
F0.95
tp3
a(I2
I86
F0.95
tp4
a(I2
I92
F0.050000000000000044
tp5
a.(lp0
(I0
I8
tp1
a(I1
I8
tp2
a(I2
I8
tp3
a.(lp0
(I0
I92
I1
tp1
a(I1
I92
F0.050000000000000044
tp2
a(I1
I98
F0.95
tp3
a(I2
I86
F0.95
tp4
a(I2
I92
F0.050000000000000044
tp5
a.(lp0
(I0
F0.0
tp1
a(I1
F0.0
tp2
a(I2
F0.0
tp3
a.(lp0
(I0
I94
F0.050000000000000044
tp1
a(I0
I96
F0.95
tp2
a(I1
I94
F0.050000000000000044
tp3
a(I1
I99
F0.95
tp4
a(I2
I89
F0.95
tp5
a(I2
I94
F0.050000000000000044
tp6
a.(lp0
(I0
F0.0
tp1
a(I1
F0.0
tp2
a(I2
F0.0
tp3
a.(lp0
(I0
I97
I1
tp1
a(I1
I97
F0.050000000000000044
tp2
a(I1
I102
F0.95
tp3
a(I2
I90
F0.95
tp4
a(I2
I97
F0.050000000000000044
tp5
a.(lp0
(I0
I19
tp1
a(I1
I19
tp2
a(I2
I19
tp3
a.(lp0
(I0
I97
I1
tp1
a(I1
I97
F0.050000000000000044
tp2
a(I1
I102
F0.95
tp3
a(I2
I90
F0.95
tp4
a(I2
I97
F0.050000000000000044
tp5
a.(lp0
(I0
F0.0
tp1
a(I1
F0.0
tp2
a(I2
F0.0
tp3
a.(lp0
(I0
I99
F0.050000000000000044
tp1
a(I0
I100
F0.95
tp2
a(I1
I99
F1.0
tp3
a(I2
I94
F0.95
tp4
a(I2
I99
F0.050000000000000044
tp5
a.(lp0
(I0
F0.0
tp1
a(I1
F0.0
tp2
a(I2
F0.0
tp3
a.(lp0
(I0
I101
I1
tp1
a(I1
I101
F1.0
tp2
a(I2
I95
F0.95
tp3
a(I2
I101
F0.050000000000000044
tp4
a.(lp0
(I0
I12
tp1
a(I1
I12
tp2
a(I2
I12
tp3
a.(lp0
(I0
I101
I1
tp1
a(I1
I101
F1.0
tp2
a(I2
I95
F0.95
tp3
a(I2
I101
F0.050000000000000044
tp4
a.(lp0
(I0
F0.0
tp1
a(I1
F0.0
tp2
a(I2
F0.0
tp3
a.(lp0
(I0
I103
F0.050000000000000044
tp1
a(I0
I104
F0.95
tp2
a(I1
I103
F0.050000000000000044
tp3
a(I1
I106
F0.95
tp4
a(I2
I103
F1.0
tp5
a.(lp0
(I0
F0.0
tp1
a(I1
F0.0
tp2
a(I2
F0.0
tp3
a.(lp0
(I0
I103
F0.050000000000000044
tp1
a(I0
I104
F0.95
tp2
a(I1
I103
F0.050000000000000044
tp3
a(I1
I106
F0.95
tp4
a(I2
I103
F1.0
tp5
a.(lp0
(I0
F0.0
tp1
a(I1
F0.0
tp2
a(I2
F0.0
tp3
a.(lp0
(I0
I103
F0.050000000000000044
tp1
a(I0
I104
F0.95
tp2
a(I1
I103
F0.050000000000000044
tp3
a(I1
I106
F0.95
tp4
a(I2
I103
F1.0
tp5
a.(lp0
(I0
F0.0
tp1
a(I1
F0.0
tp2
a(I2
F0.0
tp3
a.(lp0
(I0
I105
I1
tp1
a(I1
I103
F0.050000000000000044
tp2
a(I1
I106
F0.95
tp3
a(I2
I103
F1.0
tp4
a.(lp0
(I0
I9
tp1
a(I1
I9
tp2
a(I2
I9
tp3
a.(lp0
(I0
I105
I1
tp1
a(I1
I103
F0.050000000000000044
tp2
a(I1
I106
F0.95
tp3
a(I2
I103
F1.0
tp4
a.(lp0
(I0
F0.0
tp1
a(I1
F0.0
tp2
a(I2
F0.0
tp3
a.(lp0
(I0
I105
I1
tp1
a(I1
I103
F0.050000000000000044
tp2
a(I1
I106
F0.95
tp3
a(I2
I103
F1.0
tp4
a.(lp0
(I0
I9
tp1
a(I1
I9
tp2
a(I2
I9
tp3
a.(lp0
(I0
I106
F0.050000000000000044
tp1
a(I0
I107
F0.95
tp2
a(I1
I106
F0.050000000000000044
tp3
a(I1
I109
F0.95
tp4
a(I2
I103
F0.95
tp5
a(I2
I106
F0.050000000000000044
tp6
a.(lp0
(I0
F0.0
tp1
a(I1
F0.0
tp2
a(I2
F0.0
tp3
a.(lp0
(I0
I106
F0.050000000000000044
tp1
a(I0
I107
F0.95
tp2
a(I1
I106
F0.050000000000000044
tp3
a(I1
I109
F0.95
tp4
a(I2
I103
F0.95
tp5
a(I2
I106
F0.050000000000000044
tp6
a.(lp0
(I0
F0.0
tp1
a(I1
F0.0
tp2
a(I2
F0.0
tp3
a.(lp0
(I0
I106
F0.050000000000000044
tp1
a(I0
I107
F0.95
tp2
a(I1
I106
F0.050000000000000044
tp3
a(I1
I109
F0.95
tp4
a(I2
I103
F0.95
tp5
a(I2
I106
F0.050000000000000044
tp6
a.(lp0
(I0
F0.0
tp1
a(I1
F0.0
tp2
a(I2
F0.0
tp3
a.(lp0
(I0
I108
I1
tp1
a(I1
I106
F0.050000000000000044
tp2
a(I1
I109
F0.95
tp3
a(I2
I103
F0.95
tp4
a(I2
I106
F0.050000000000000044
tp5
a.(lp0
(I0
I8
tp1
a(I1
I8
tp2
a(I2
I8
tp3
a.(lp0
(I0
I108
I1
tp1
a(I1
I106
F0.050000000000000044
tp2
a(I1
I109
F0.95
tp3
a(I2
I103
F0.95
tp4
a(I2
I106
F0.050000000000000044
tp5
a.(lp0
(I0
F0.0
tp1
a(I1
F0.0
tp2
a(I2
F0.0
tp3
a.(lp0
(I0
I108
I1
tp1
a(I1
I106
F0.050000000000000044
tp2
a(I1
I109
F0.95
tp3
a(I2
I103
F0.95
tp4
a(I2
I106
F0.050000000000000044
tp5
a.(lp0
(I0
I8
tp1
a(I1
I8
tp2
a(I2
I8
tp3
a.(lp0
(I0
I106
F0.050000000000000044
tp1
a(I0
I107
F0.95
tp2
a(I1
I106
F0.050000000000000044
tp3
a(I1
I109
F0.95
tp4
a(I2
I103
F0.95
tp5
a(I2
I106
F0.050000000000000044
tp6
a.(lp0
(I0
F0.0
tp1
a(I1
F0.0
tp2
a(I2
F0.0
tp3
a.(lp0
(I0
I108
I1
tp1
a(I1
I106
F0.050000000000000044
tp2
a(I1
I109
F0.95
tp3
a(I2
I103
F0.95
tp4
a(I2
I106
F0.050000000000000044
tp5
a.(lp0
(I0
I8
tp1
a(I1
I8
tp2
a(I2
I8
tp3
a.(lp0
(I0
I109
F0.050000000000000044
tp1
a(I0
I110
F0.95
tp2
a(I1
I109
F0.050000000000000044
tp3
a(I1
I112
F0.95
tp4
a(I2
I106
F0.95
tp5
a(I2
I109
F0.050000000000000044
tp6
a.(lp0
(I0
F0.0
tp1
a(I1
F0.0
tp2
a(I2
F0.0
tp3
a.(lp0
(I0
I109
F0.050000000000000044
tp1
a(I0
I110
F0.95
tp2
a(I1
I109
F0.050000000000000044
tp3
a(I1
I112
F0.95
tp4
a(I2
I106
F0.95
tp5
a(I2
I109
F0.050000000000000044
tp6
a.(lp0
(I0
F0.0
tp1
a(I1
F0.0
tp2
a(I2
F0.0
tp3
a.(lp0
(I0
I111
I1
tp1
a(I1
I109
F0.050000000000000044
tp2
a(I1
I112
F0.95
tp3
a(I2
I106
F0.95
tp4
a(I2
I109
F0.050000000000000044
tp5
a.(lp0
(I0
I19
tp1
a(I1
I19
tp2
a(I2
I19
tp3
a.(lp0
(I0
I111
I1
tp1
a(I1
I109
F0.050000000000000044
tp2
a(I1
I112
F0.95
tp3
a(I2
I106
F0.95
tp4
a(I2
I109
F0.050000000000000044
tp5
a.(lp0
(I0
F0.0
tp1
a(I1
F0.0
tp2
a(I2
F0.0
tp3
a.(lp0
(I0
I111
I1
tp1
a(I1
I109
F0.050000000000000044
tp2
a(I1
I112
F0.95
tp3
a(I2
I106
F0.95
tp4
a(I2
I109
F0.050000000000000044
tp5
a.(lp0
(I0
I19
tp1
a(I1
I19
tp2
a(I2
I19
tp3
a.(lp0
(I0
I109
F0.050000000000000044
tp1
a(I0
I110
F0.95
tp2
a(I1
I109
F0.050000000000000044
tp3
a(I1
I112
F0.95
tp4
a(I2
I106
F0.95
tp5
a(I2
I109
F0.050000000000000044
tp6
a.(lp0
(I0
F0.0
tp1
a(I1
F0.0
tp2
a(I2
F0.0
tp3
a.(lp0
(I0
I111
I1
tp1
a(I1
I109
F0.050000000000000044
tp2
a(I1
I112
F0.95
tp3
a(I2
I106
F0.95
tp4
a(I2
I109
F0.050000000000000044
tp5
a.(lp0
(I0
I19
tp1
a(I1
I19
tp2
a(I2
I19
tp3
a.(lp0
(I0
I109
F0.050000000000000044
tp1
a(I0
I110
F0.95
tp2
a(I1
I109
F0.050000000000000044
tp3
a(I1
I112
F0.95
tp4
a(I2
I106
F0.95
tp5
a(I2
I109
F0.050000000000000044
tp6
a.(lp0
(I0
F0.0
tp1
a(I1
F0.0
tp2
a(I2
F0.0
tp3
a.(lp0
(I0
I112
F0.050000000000000044
tp1
a(I0
I113
F0.95
tp2
a(I1
I112
F1.0
tp3
a(I2
I109
F0.95
tp4
a(I2
I112
F0.050000000000000044
tp5
a.(lp0
(I0
F0.0
tp1
a(I1
F0.0
tp2
a(I2
F0.0
tp3
a.(lp0
(I0
I114
I1
tp1
a(I1
I112
F1.0
tp2
a(I2
I109
F0.95
tp3
a(I2
I112
F0.050000000000000044
tp4
a.(lp0
(I0
I12
tp1
a(I1
I12
tp2
a(I2
I12
tp3
a.(lp0
(I0
I114
I1
tp1
a(I1
I112
F1.0
tp2
a(I2
I109
F0.95
tp3
a(I2
I112
F0.050000000000000044
tp4
a.(lp0
(I0
F0.0
tp1
a(I1
F0.0
tp2
a(I2
F0.0
tp3
a.(lp0
(I0
I112
F0.050000000000000044
tp1
a(I0
I113
F0.95
tp2
a(I1
I112
F1.0
tp3
a(I2
I109
F0.95
tp4
a(I2
I112
F0.050000000000000044
tp5
a.(lp0
(I0
F0.0
tp1
a(I1
F0.0
tp2
a(I2
F0.0
tp3
a.(lp0
(I0
I114
I1
tp1
a(I1
I112
F1.0
tp2
a(I2
I109
F0.95
tp3
a(I2
I112
F0.050000000000000044
tp4
a.(lp0
(I0
I12
tp1
a(I1
I12
tp2
a(I2
I12
tp3
a.(lp0
(I0
I112
F0.050000000000000044
tp1
a(I0
I113
F0.95
tp2
a(I1
I112
F1.0
tp3
a(I2
I109
F0.95
tp4
a(I2
I112
F0.050000000000000044
tp5
a.(lp0
(I0
F0.0
tp1
a(I1
F0.0
tp2
a(I2
F0.0
tp3
a.(lp0
(I0
I115
F0.050000000000000044
tp1
a(I0
I118
F0.95
tp2
a(I1
I115
F0.050000000000000044
tp3
a(I1
I121
F0.95
tp4
a(I2
I115
F1.0
tp5
a.(lp0
(I0
F0.0
tp1
a(I1
F0.0
tp2
a(I2
F0.0
tp3
a.(lp0
(I0
I117
F0.050000000000000044
tp1
a(I0
I120
F0.95
tp2
a(I1
I117
F0.050000000000000044
tp3
a(I1
I125
F0.95
tp4
a(I2
I117
F1.0
tp5
a.(lp0
(I0
F0.0
tp1
a(I1
F0.0
tp2
a(I2
F0.0
tp3
a.(lp0
(I0
I119
I1
tp1
a(I1
I119
F0.050000000000000044
tp2
a(I1
I127
F0.95
tp3
a(I2
I119
F1.0
tp4
a.(lp0
(I0
I9
tp1
a(I1
I9
tp2
a(I2
I9
tp3
a.(lp0
(I0
I119
I1
tp1
a(I1
I119
F0.050000000000000044
tp2
a(I1
I127
F0.95
tp3
a(I2
I119
F1.0
tp4
a.(lp0
(I0
F0.0
tp1
a(I1
F0.0
tp2
a(I2
F0.0
tp3
a.(lp0
(I0
I121
F0.050000000000000044
tp1
a(I0
I124
F0.95
tp2
a(I1
I121
F0.050000000000000044
tp3
a(I1
I129
F0.95
tp4
a(I2
I115
F0.95
tp5
a(I2
I121
F0.050000000000000044
tp6
a.(lp0
(I0
F0.0
tp1
a(I1
F0.0
tp2
a(I2
F0.0
tp3
a.(lp0
(I0
I123
F0.050000000000000044
tp1
a(I0
I126
F0.95
tp2
a(I1
I123
F0.050000000000000044
tp3
a(I1
I132
F0.95
tp4
a(I2
I116
F0.95
tp5
a(I2
I123
F0.050000000000000044
tp6
a.(lp0
(I0
F0.0
tp1
a(I1
F0.0
tp2
a(I2
F0.0
tp3
a.(lp0
(I0
I125
I1
tp1
a(I1
I125
F0.050000000000000044
tp2
a(I1
I134
F0.95
tp3
a(I2
I117
F0.95
tp4
a(I2
I125
F0.050000000000000044
tp5
a.(lp0
(I0
I8
tp1
a(I1
I8
tp2
a(I2
I8
tp3
a.(lp0
(I0
I125
I1
tp1
a(I1
I125
F0.050000000000000044
tp2
a(I1
I134
F0.95
tp3
a(I2
I117
F0.95
tp4
a(I2
I125
F0.050000000000000044
tp5
a.(lp0
(I0
F0.0
tp1
a(I1
F0.0
tp2
a(I2
F0.0
tp3
a.(lp0
(I0
I127
F0.050000000000000044
tp1
a(I0
I128
F0.95
tp2
a(I1
I127
F0.050000000000000044
tp3
a(I1
I136
F0.95
tp4
a(I2
I119
F0.95
tp5
a(I2
I127
F0.050000000000000044
tp6
a.(lp0
(I0
F0.0
tp1
a(I1
F0.0
tp2
a(I2
F0.0
tp3
a.(lp0
(I0
I129
F0.050000000000000044
tp1
a(I0
I131
F0.95
tp2
a(I1
I129
F0.050000000000000044
tp3
a(I1
I137
F0.95
tp4
a(I2
I121
F0.95
tp5
a(I2
I129
F0.050000000000000044
tp6
a.(lp0
(I0
F0.0
tp1
a(I1
F0.0
tp2
a(I2
F0.0
tp3
a.(lp0
(I0
I130
F0.050000000000000044
tp1
a(I0
I133
F0.95
tp2
a(I1
I130
F0.050000000000000044
tp3
a(I1
I139
F0.95
tp4
a(I2
I122
F0.95
tp5
a(I2
I130
F0.050000000000000044
tp6
a.(lp0
(I0
F0.0
tp1
a(I1
F0.0
tp2
a(I2
F0.0
tp3
a.(lp0
(I0
I132
I1
tp1
a(I1
I132
F0.050000000000000044
tp2
a(I1
I140
F0.95
tp3
a(I2
I123
F0.95
tp4
a(I2
I132
F0.050000000000000044
tp5
a.(lp0
(I0
I19
tp1
a(I1
I19
tp2
a(I2
I19
tp3
a.(lp0
(I0
I132
I1
tp1
a(I1
I132
F0.050000000000000044
tp2
a(I1
I140
F0.95
tp3
a(I2
I123
F0.95
tp4
a(I2
I132
F0.050000000000000044
tp5
a.(lp0
(I0
F0.0
tp1
a(I1
F0.0
tp2
a(I2
F0.0
tp3
a.(lp0
(I0
I134
F0.050000000000000044
tp1
a(I0
I135
F0.95
tp2
a(I1
I134
F0.050000000000000044
tp3
a(I1
I142
F0.95
tp4
a(I2
I125
F0.95
tp5
a(I2
I134
F0.050000000000000044
tp6
a.(lp0
(I0
F0.0
tp1
a(I1
F0.0
tp2
a(I2
F0.0
tp3
a.(lp0
(I0
I137
F0.050000000000000044
tp1
a(I0
I138
F0.95
tp2
a(I1
I137
F1.0
tp3
a(I2
I129
F0.95
tp4
a(I2
I137
F0.050000000000000044
tp5
a.(lp0
(I0
F0.0
tp1
a(I1
F0.0
tp2
a(I2
F0.0
tp3
a.(lp0
(I0
I139
I1
tp1
a(I1
I139
F1.0
tp2
a(I2
I130
F0.95
tp3
a(I2
I139
F0.050000000000000044
tp4
a.(lp0
(I0
I12
tp1
a(I1
I12
tp2
a(I2
I12
tp3
a.(lp0
(I0
I139
I1
tp1
a(I1
I139
F1.0
tp2
a(I2
I130
F0.95
tp3
a(I2
I139
F0.050000000000000044
tp4
a.(lp0
(I0
F0.0
tp1
a(I1
F0.0
tp2
a(I2
F0.0
tp3
a.(lp0
(I0
I140
F0.050000000000000044
tp1
a(I0
I141
F0.95
tp2
a(I1
I140
F1.0
tp3
a(I2
I132
F0.95
tp4
a(I2
I140
F0.050000000000000044
tp5
a.(lp0
(I0
F0.0
tp1
a(I1
F0.0
tp2
a(I2
F0.0
tp3
a.(lp0
(I0
I143
F0.050000000000000044
tp1
a(I0
I145
F0.95
tp2
a(I1
I143
F0.050000000000000044
tp3
a(I1
I147
F0.95
tp4
a(I2
I143
F1.0
tp5
a.(lp0
(I0
F0.0
tp1
a(I1
F0.0
tp2
a(I2
F0.0
tp3
a.(lp0
(I0
I146
I1
tp1
a(I1
I146
F0.050000000000000044
tp2
a(I1
I151
F0.95
tp3
a(I2
I146
F1.0
tp4
a.(lp0
(I0
I9
tp1
a(I1
I9
tp2
a(I2
I9
tp3
a.(lp0
(I0
I147
F0.050000000000000044
tp1
a(I0
I149
F0.95
tp2
a(I1
I147
F0.050000000000000044
tp3
a(I1
I152
F0.95
tp4
a(I2
I143
F0.95
tp5
a(I2
I147
F0.050000000000000044
tp6
a.(lp0
(I0
F0.0
tp1
a(I1
F0.0
tp2
a(I2
F0.0
tp3
a.(lp0
(I0
I150
I1
tp1
a(I1
I150
F0.050000000000000044
tp2
a(I1
I156
F0.95
tp3
a(I2
I144
F0.95
tp4
a(I2
I150
F0.050000000000000044
tp5
a.(lp0
(I0
I8
tp1
a(I1
I8
tp2
a(I2
I8
tp3
a.(lp0
(I0
I152
F0.050000000000000044
tp1
a(I0
I154
F0.95
tp2
a(I1
I152
F0.050000000000000044
tp3
a(I1
I157
F0.95
tp4
a(I2
I147
F0.95
tp5
a(I2
I152
F0.050000000000000044
tp6
a.(lp0
(I0
F0.0
tp1
a(I1
F0.0
tp2
a(I2
F0.0
tp3
a.(lp0
(I0
I155
I1
tp1
a(I1
I155
F0.050000000000000044
tp2
a(I1
I160
F0.95
tp3
a(I2
I148
F0.95
tp4
a(I2
I155
F0.050000000000000044
tp5
a.(lp0
(I0
I19
tp1
a(I1
I19
tp2
a(I2
I19
tp3
a.(lp0
(I0
I157
F0.050000000000000044
tp1
a(I0
I158
F0.95
tp2
a(I1
I157
F1.0
tp3
a(I2
I152
F0.95
tp4
a(I2
I157
F0.050000000000000044
tp5
a.(lp0
(I0
F0.0
tp1
a(I1
F0.0
tp2
a(I2
F0.0
tp3
a.(lp0
(I0
I159
I1
tp1
a(I1
I159
F1.0
tp2
a(I2
I153
F0.95
tp3
a(I2
I159
F0.050000000000000044
tp4
a.(lp0
(I0
I12
tp1
a(I1
I12
tp2
a(I2
I12
tp3
a.(lp0
(I0
I161
F0.050000000000000044
tp1
a(I0
I162
F0.95
tp2
a(I1
I161
F0.050000000000000044
tp3
a(I1
I163
F0.95
tp4
a(I2
I161
F1.0
tp5
a.(lp0
(I0
F0.0
tp1
a(I1
F0.0
tp2
a(I2
F0.0
tp3
a.(lp0
(I0
I163
F0.050000000000000044
tp1
a(I0
I164
F0.95
tp2
a(I1
I163
F0.050000000000000044
tp3
a(I1
I165
F0.95
tp4
a(I2
I161
F0.95
tp5
a(I2
I163
F0.050000000000000044
tp6
a.(lp0
(I0
F0.0
tp1
a(I1
F0.0
tp2
a(I2
F0.0
tp3
a.(lp0
(I0
I165
F0.050000000000000044
tp1
a(I0
I166
F0.95
tp2
a(I1
I165
F0.050000000000000044
tp3
a(I1
I167
F0.95
tp4
a(I2
I163
F0.95
tp5
a(I2
I165
F0.050000000000000044
tp6
a.(lp0
(I0
F0.0
tp1
a(I1
F0.0
tp2
a(I2
F0.0
tp3
a.(lp0
(I0
I167
F0.050000000000000044
tp1
a(I0
I168
F0.95
tp2
a(I1
I167
F1.0
tp3
a(I2
I165
F0.95
tp4
a(I2
I167
F0.050000000000000044
tp5
a.(lp0
(I0
F0.0
tp1
a(I1
F0.0
tp2
a(I2
F0.0
tp3
a.